
libxenomai.so:     file format elf32-littlearm


Disassembly of section .init:

00001854 <_init>:
    1854:	e92d4008 	push	{r3, lr}
    1858:	eb0000f2 	bl	1c28 <call_weak_fn>
    185c:	e8bd8008 	pop	{r3, pc}

Disassembly of section .plt:

00001860 <.plt>:
    1860:	e52de004 	push	{lr}		; (str lr, [sp, #-4]!)
    1864:	e59fe004 	ldr	lr, [pc, #4]	; 1870 <_init+0x1c>
    1868:	e08fe00e 	add	lr, pc, lr
    186c:	e5bef008 	ldr	pc, [lr, #8]!
    1870:	0000e8c0 	andeq	lr, r0, r0, asr #17
    1874:	e28fc600 	add	ip, pc, #0
    1878:	e28cca0e 	add	ip, ip, #57344	; 0xe000
    187c:	e5bcf8c0 	ldr	pc, [ip, #2240]!	; 0x8c0
    1880:	e28fc600 	add	ip, pc, #0
    1884:	e28cca0e 	add	ip, ip, #57344	; 0xe000
    1888:	e5bcf8b8 	ldr	pc, [ip, #2232]!	; 0x8b8
    188c:	e28fc600 	add	ip, pc, #0
    1890:	e28cca0e 	add	ip, ip, #57344	; 0xe000
    1894:	e5bcf8b0 	ldr	pc, [ip, #2224]!	; 0x8b0
    1898:	e28fc600 	add	ip, pc, #0
    189c:	e28cca0e 	add	ip, ip, #57344	; 0xe000
    18a0:	e5bcf8a8 	ldr	pc, [ip, #2216]!	; 0x8a8
    18a4:	e28fc600 	add	ip, pc, #0
    18a8:	e28cca0e 	add	ip, ip, #57344	; 0xe000
    18ac:	e5bcf8a0 	ldr	pc, [ip, #2208]!	; 0x8a0
    18b0:	e28fc600 	add	ip, pc, #0
    18b4:	e28cca0e 	add	ip, ip, #57344	; 0xe000
    18b8:	e5bcf898 	ldr	pc, [ip, #2200]!	; 0x898
    18bc:	e28fc600 	add	ip, pc, #0
    18c0:	e28cca0e 	add	ip, ip, #57344	; 0xe000
    18c4:	e5bcf890 	ldr	pc, [ip, #2192]!	; 0x890
    18c8:	e28fc600 	add	ip, pc, #0
    18cc:	e28cca0e 	add	ip, ip, #57344	; 0xe000
    18d0:	e5bcf888 	ldr	pc, [ip, #2184]!	; 0x888
    18d4:	e28fc600 	add	ip, pc, #0
    18d8:	e28cca0e 	add	ip, ip, #57344	; 0xe000
    18dc:	e5bcf880 	ldr	pc, [ip, #2176]!	; 0x880
    18e0:	e28fc600 	add	ip, pc, #0
    18e4:	e28cca0e 	add	ip, ip, #57344	; 0xe000
    18e8:	e5bcf878 	ldr	pc, [ip, #2168]!	; 0x878
    18ec:	e28fc600 	add	ip, pc, #0
    18f0:	e28cca0e 	add	ip, ip, #57344	; 0xe000
    18f4:	e5bcf870 	ldr	pc, [ip, #2160]!	; 0x870
    18f8:	e28fc600 	add	ip, pc, #0
    18fc:	e28cca0e 	add	ip, ip, #57344	; 0xe000
    1900:	e5bcf868 	ldr	pc, [ip, #2152]!	; 0x868
    1904:	e28fc600 	add	ip, pc, #0
    1908:	e28cca0e 	add	ip, ip, #57344	; 0xe000
    190c:	e5bcf860 	ldr	pc, [ip, #2144]!	; 0x860
    1910:	e28fc600 	add	ip, pc, #0
    1914:	e28cca0e 	add	ip, ip, #57344	; 0xe000
    1918:	e5bcf858 	ldr	pc, [ip, #2136]!	; 0x858
    191c:	e28fc600 	add	ip, pc, #0
    1920:	e28cca0e 	add	ip, ip, #57344	; 0xe000
    1924:	e5bcf850 	ldr	pc, [ip, #2128]!	; 0x850
    1928:	e28fc600 	add	ip, pc, #0
    192c:	e28cca0e 	add	ip, ip, #57344	; 0xe000
    1930:	e5bcf848 	ldr	pc, [ip, #2120]!	; 0x848
    1934:	e28fc600 	add	ip, pc, #0
    1938:	e28cca0e 	add	ip, ip, #57344	; 0xe000
    193c:	e5bcf840 	ldr	pc, [ip, #2112]!	; 0x840
    1940:	e28fc600 	add	ip, pc, #0
    1944:	e28cca0e 	add	ip, ip, #57344	; 0xe000
    1948:	e5bcf838 	ldr	pc, [ip, #2104]!	; 0x838
    194c:	e28fc600 	add	ip, pc, #0
    1950:	e28cca0e 	add	ip, ip, #57344	; 0xe000
    1954:	e5bcf830 	ldr	pc, [ip, #2096]!	; 0x830
    1958:	e28fc600 	add	ip, pc, #0
    195c:	e28cca0e 	add	ip, ip, #57344	; 0xe000
    1960:	e5bcf828 	ldr	pc, [ip, #2088]!	; 0x828
    1964:	e28fc600 	add	ip, pc, #0
    1968:	e28cca0e 	add	ip, ip, #57344	; 0xe000
    196c:	e5bcf820 	ldr	pc, [ip, #2080]!	; 0x820
    1970:	e28fc600 	add	ip, pc, #0
    1974:	e28cca0e 	add	ip, ip, #57344	; 0xe000
    1978:	e5bcf818 	ldr	pc, [ip, #2072]!	; 0x818
    197c:	e28fc600 	add	ip, pc, #0
    1980:	e28cca0e 	add	ip, ip, #57344	; 0xe000
    1984:	e5bcf810 	ldr	pc, [ip, #2064]!	; 0x810
    1988:	e28fc600 	add	ip, pc, #0
    198c:	e28cca0e 	add	ip, ip, #57344	; 0xe000
    1990:	e5bcf808 	ldr	pc, [ip, #2056]!	; 0x808
    1994:	e28fc600 	add	ip, pc, #0
    1998:	e28cca0e 	add	ip, ip, #57344	; 0xe000
    199c:	e5bcf800 	ldr	pc, [ip, #2048]!	; 0x800
    19a0:	e28fc600 	add	ip, pc, #0
    19a4:	e28cca0e 	add	ip, ip, #57344	; 0xe000
    19a8:	e5bcf7f8 	ldr	pc, [ip, #2040]!	; 0x7f8
    19ac:	e28fc600 	add	ip, pc, #0
    19b0:	e28cca0e 	add	ip, ip, #57344	; 0xe000
    19b4:	e5bcf7f0 	ldr	pc, [ip, #2032]!	; 0x7f0
    19b8:	e28fc600 	add	ip, pc, #0
    19bc:	e28cca0e 	add	ip, ip, #57344	; 0xe000
    19c0:	e5bcf7e8 	ldr	pc, [ip, #2024]!	; 0x7e8
    19c4:	e28fc600 	add	ip, pc, #0
    19c8:	e28cca0e 	add	ip, ip, #57344	; 0xe000
    19cc:	e5bcf7e0 	ldr	pc, [ip, #2016]!	; 0x7e0
    19d0:	e28fc600 	add	ip, pc, #0
    19d4:	e28cca0e 	add	ip, ip, #57344	; 0xe000
    19d8:	e5bcf7d8 	ldr	pc, [ip, #2008]!	; 0x7d8
    19dc:	e28fc600 	add	ip, pc, #0
    19e0:	e28cca0e 	add	ip, ip, #57344	; 0xe000
    19e4:	e5bcf7d0 	ldr	pc, [ip, #2000]!	; 0x7d0
    19e8:	e28fc600 	add	ip, pc, #0
    19ec:	e28cca0e 	add	ip, ip, #57344	; 0xe000
    19f0:	e5bcf7c8 	ldr	pc, [ip, #1992]!	; 0x7c8
    19f4:	e28fc600 	add	ip, pc, #0
    19f8:	e28cca0e 	add	ip, ip, #57344	; 0xe000
    19fc:	e5bcf7c0 	ldr	pc, [ip, #1984]!	; 0x7c0
    1a00:	e28fc600 	add	ip, pc, #0
    1a04:	e28cca0e 	add	ip, ip, #57344	; 0xe000
    1a08:	e5bcf7b8 	ldr	pc, [ip, #1976]!	; 0x7b8
    1a0c:	e28fc600 	add	ip, pc, #0
    1a10:	e28cca0e 	add	ip, ip, #57344	; 0xe000
    1a14:	e5bcf7b0 	ldr	pc, [ip, #1968]!	; 0x7b0
    1a18:	e28fc600 	add	ip, pc, #0
    1a1c:	e28cca0e 	add	ip, ip, #57344	; 0xe000
    1a20:	e5bcf7a8 	ldr	pc, [ip, #1960]!	; 0x7a8
    1a24:	e28fc600 	add	ip, pc, #0
    1a28:	e28cca0e 	add	ip, ip, #57344	; 0xe000
    1a2c:	e5bcf7a0 	ldr	pc, [ip, #1952]!	; 0x7a0
    1a30:	e28fc600 	add	ip, pc, #0
    1a34:	e28cca0e 	add	ip, ip, #57344	; 0xe000
    1a38:	e5bcf798 	ldr	pc, [ip, #1944]!	; 0x798
    1a3c:	e28fc600 	add	ip, pc, #0
    1a40:	e28cca0e 	add	ip, ip, #57344	; 0xe000
    1a44:	e5bcf790 	ldr	pc, [ip, #1936]!	; 0x790
    1a48:	e28fc600 	add	ip, pc, #0
    1a4c:	e28cca0e 	add	ip, ip, #57344	; 0xe000
    1a50:	e5bcf788 	ldr	pc, [ip, #1928]!	; 0x788
    1a54:	e28fc600 	add	ip, pc, #0
    1a58:	e28cca0e 	add	ip, ip, #57344	; 0xe000
    1a5c:	e5bcf780 	ldr	pc, [ip, #1920]!	; 0x780
    1a60:	e28fc600 	add	ip, pc, #0
    1a64:	e28cca0e 	add	ip, ip, #57344	; 0xe000
    1a68:	e5bcf778 	ldr	pc, [ip, #1912]!	; 0x778
    1a6c:	e28fc600 	add	ip, pc, #0
    1a70:	e28cca0e 	add	ip, ip, #57344	; 0xe000
    1a74:	e5bcf770 	ldr	pc, [ip, #1904]!	; 0x770
    1a78:	e28fc600 	add	ip, pc, #0
    1a7c:	e28cca0e 	add	ip, ip, #57344	; 0xe000
    1a80:	e5bcf768 	ldr	pc, [ip, #1896]!	; 0x768
    1a84:	e28fc600 	add	ip, pc, #0
    1a88:	e28cca0e 	add	ip, ip, #57344	; 0xe000
    1a8c:	e5bcf760 	ldr	pc, [ip, #1888]!	; 0x760
    1a90:	e28fc600 	add	ip, pc, #0
    1a94:	e28cca0e 	add	ip, ip, #57344	; 0xe000
    1a98:	e5bcf758 	ldr	pc, [ip, #1880]!	; 0x758
    1a9c:	e28fc600 	add	ip, pc, #0
    1aa0:	e28cca0e 	add	ip, ip, #57344	; 0xe000
    1aa4:	e5bcf750 	ldr	pc, [ip, #1872]!	; 0x750
    1aa8:	e28fc600 	add	ip, pc, #0
    1aac:	e28cca0e 	add	ip, ip, #57344	; 0xe000
    1ab0:	e5bcf748 	ldr	pc, [ip, #1864]!	; 0x748
    1ab4:	e28fc600 	add	ip, pc, #0
    1ab8:	e28cca0e 	add	ip, ip, #57344	; 0xe000
    1abc:	e5bcf740 	ldr	pc, [ip, #1856]!	; 0x740
    1ac0:	e28fc600 	add	ip, pc, #0
    1ac4:	e28cca0e 	add	ip, ip, #57344	; 0xe000
    1ac8:	e5bcf738 	ldr	pc, [ip, #1848]!	; 0x738
    1acc:	e28fc600 	add	ip, pc, #0
    1ad0:	e28cca0e 	add	ip, ip, #57344	; 0xe000
    1ad4:	e5bcf730 	ldr	pc, [ip, #1840]!	; 0x730
    1ad8:	e28fc600 	add	ip, pc, #0
    1adc:	e28cca0e 	add	ip, ip, #57344	; 0xe000
    1ae0:	e5bcf728 	ldr	pc, [ip, #1832]!	; 0x728
    1ae4:	e28fc600 	add	ip, pc, #0
    1ae8:	e28cca0e 	add	ip, ip, #57344	; 0xe000
    1aec:	e5bcf720 	ldr	pc, [ip, #1824]!	; 0x720
    1af0:	e28fc600 	add	ip, pc, #0
    1af4:	e28cca0e 	add	ip, ip, #57344	; 0xe000
    1af8:	e5bcf718 	ldr	pc, [ip, #1816]!	; 0x718
    1afc:	e28fc600 	add	ip, pc, #0
    1b00:	e28cca0e 	add	ip, ip, #57344	; 0xe000
    1b04:	e5bcf710 	ldr	pc, [ip, #1808]!	; 0x710
    1b08:	e28fc600 	add	ip, pc, #0
    1b0c:	e28cca0e 	add	ip, ip, #57344	; 0xe000
    1b10:	e5bcf708 	ldr	pc, [ip, #1800]!	; 0x708
    1b14:	e28fc600 	add	ip, pc, #0
    1b18:	e28cca0e 	add	ip, ip, #57344	; 0xe000
    1b1c:	e5bcf700 	ldr	pc, [ip, #1792]!	; 0x700
    1b20:	e28fc600 	add	ip, pc, #0
    1b24:	e28cca0e 	add	ip, ip, #57344	; 0xe000
    1b28:	e5bcf6f8 	ldr	pc, [ip, #1784]!	; 0x6f8
    1b2c:	e28fc600 	add	ip, pc, #0
    1b30:	e28cca0e 	add	ip, ip, #57344	; 0xe000
    1b34:	e5bcf6f0 	ldr	pc, [ip, #1776]!	; 0x6f0
    1b38:	e28fc600 	add	ip, pc, #0
    1b3c:	e28cca0e 	add	ip, ip, #57344	; 0xe000
    1b40:	e5bcf6e8 	ldr	pc, [ip, #1768]!	; 0x6e8
    1b44:	e28fc600 	add	ip, pc, #0
    1b48:	e28cca0e 	add	ip, ip, #57344	; 0xe000
    1b4c:	e5bcf6e0 	ldr	pc, [ip, #1760]!	; 0x6e0
    1b50:	e28fc600 	add	ip, pc, #0
    1b54:	e28cca0e 	add	ip, ip, #57344	; 0xe000
    1b58:	e5bcf6d8 	ldr	pc, [ip, #1752]!	; 0x6d8
    1b5c:	e28fc600 	add	ip, pc, #0
    1b60:	e28cca0e 	add	ip, ip, #57344	; 0xe000
    1b64:	e5bcf6d0 	ldr	pc, [ip, #1744]!	; 0x6d0
    1b68:	e28fc600 	add	ip, pc, #0
    1b6c:	e28cca0e 	add	ip, ip, #57344	; 0xe000
    1b70:	e5bcf6c8 	ldr	pc, [ip, #1736]!	; 0x6c8
    1b74:	e28fc600 	add	ip, pc, #0
    1b78:	e28cca0e 	add	ip, ip, #57344	; 0xe000
    1b7c:	e5bcf6c0 	ldr	pc, [ip, #1728]!	; 0x6c0
    1b80:	e28fc600 	add	ip, pc, #0
    1b84:	e28cca0e 	add	ip, ip, #57344	; 0xe000
    1b88:	e5bcf6b8 	ldr	pc, [ip, #1720]!	; 0x6b8
    1b8c:	e28fc600 	add	ip, pc, #0
    1b90:	e28cca0e 	add	ip, ip, #57344	; 0xe000
    1b94:	e5bcf6b0 	ldr	pc, [ip, #1712]!	; 0x6b0
    1b98:	e28fc600 	add	ip, pc, #0
    1b9c:	e28cca0e 	add	ip, ip, #57344	; 0xe000
    1ba0:	e5bcf6a8 	ldr	pc, [ip, #1704]!	; 0x6a8
    1ba4:	e28fc600 	add	ip, pc, #0
    1ba8:	e28cca0e 	add	ip, ip, #57344	; 0xe000
    1bac:	e5bcf6a0 	ldr	pc, [ip, #1696]!	; 0x6a0
    1bb0:	e28fc600 	add	ip, pc, #0
    1bb4:	e28cca0e 	add	ip, ip, #57344	; 0xe000
    1bb8:	e5bcf698 	ldr	pc, [ip, #1688]!	; 0x698
    1bbc:	e28fc600 	add	ip, pc, #0
    1bc0:	e28cca0e 	add	ip, ip, #57344	; 0xe000
    1bc4:	e5bcf690 	ldr	pc, [ip, #1680]!	; 0x690
    1bc8:	e28fc600 	add	ip, pc, #0
    1bcc:	e28cca0e 	add	ip, ip, #57344	; 0xe000
    1bd0:	e5bcf688 	ldr	pc, [ip, #1672]!	; 0x688
    1bd4:	e28fc600 	add	ip, pc, #0
    1bd8:	e28cca0e 	add	ip, ip, #57344	; 0xe000
    1bdc:	e5bcf680 	ldr	pc, [ip, #1664]!	; 0x680
    1be0:	e28fc600 	add	ip, pc, #0
    1be4:	e28cca0e 	add	ip, ip, #57344	; 0xe000
    1be8:	e5bcf678 	ldr	pc, [ip, #1656]!	; 0x678
    1bec:	e28fc600 	add	ip, pc, #0
    1bf0:	e28cca0e 	add	ip, ip, #57344	; 0xe000
    1bf4:	e5bcf670 	ldr	pc, [ip, #1648]!	; 0x670
    1bf8:	e28fc600 	add	ip, pc, #0
    1bfc:	e28cca0e 	add	ip, ip, #57344	; 0xe000
    1c00:	e5bcf668 	ldr	pc, [ip, #1640]!	; 0x668
    1c04:	e28fc600 	add	ip, pc, #0
    1c08:	e28cca0e 	add	ip, ip, #57344	; 0xe000
    1c0c:	e5bcf660 	ldr	pc, [ip, #1632]!	; 0x660
    1c10:	e28fc600 	add	ip, pc, #0
    1c14:	e28cca0e 	add	ip, ip, #57344	; 0xe000
    1c18:	e5bcf658 	ldr	pc, [ip, #1624]!	; 0x658
    1c1c:	e28fc600 	add	ip, pc, #0
    1c20:	e28cca0e 	add	ip, ip, #57344	; 0xe000
    1c24:	e5bcf650 	ldr	pc, [ip, #1616]!	; 0x650

Disassembly of section .text:

00001c28 <call_weak_fn>:
    1c28:	e59f3014 	ldr	r3, [pc, #20]	; 1c44 <call_weak_fn+0x1c>
    1c2c:	e59f2014 	ldr	r2, [pc, #20]	; 1c48 <call_weak_fn+0x20>
    1c30:	e08f3003 	add	r3, pc, r3
    1c34:	e7932002 	ldr	r2, [r3, r2]
    1c38:	e3520000 	cmp	r2, #0
    1c3c:	012fff1e 	bxeq	lr
    1c40:	eaffff80 	b	1a48 <_init+0x1f4>
    1c44:	0000e4f8 	strdeq	lr, [r0], -r8
    1c48:	0000015c 	andeq	r0, r0, ip, asr r1

00001c4c <deregister_tm_clones>:
    1c4c:	e92d4008 	push	{r3, lr}
    1c50:	e59f3038 	ldr	r3, [pc, #56]	; 1c90 <deregister_tm_clones+0x44>
    1c54:	e59f0038 	ldr	r0, [pc, #56]	; 1c94 <deregister_tm_clones+0x48>
    1c58:	e08f3003 	add	r3, pc, r3
    1c5c:	e08f0000 	add	r0, pc, r0
    1c60:	e2833003 	add	r3, r3, #3
    1c64:	e0603003 	rsb	r3, r0, r3
    1c68:	e3530006 	cmp	r3, #6
    1c6c:	e59f3024 	ldr	r3, [pc, #36]	; 1c98 <deregister_tm_clones+0x4c>
    1c70:	e08f3003 	add	r3, pc, r3
    1c74:	98bd8008 	popls	{r3, pc}
    1c78:	e59f201c 	ldr	r2, [pc, #28]	; 1c9c <deregister_tm_clones+0x50>
    1c7c:	e7933002 	ldr	r3, [r3, r2]
    1c80:	e3530000 	cmp	r3, #0
    1c84:	08bd8008 	popeq	{r3, pc}
    1c88:	e12fff33 	blx	r3
    1c8c:	e8bd8008 	pop	{r3, pc}
    1c90:	0000e678 	andeq	lr, r0, r8, ror r6
    1c94:	0000e674 	andeq	lr, r0, r4, ror r6
    1c98:	0000e4b8 			; <UNDEFINED> instruction: 0x0000e4b8
    1c9c:	00000150 	andeq	r0, r0, r0, asr r1

00001ca0 <register_tm_clones>:
    1ca0:	e92d4008 	push	{r3, lr}
    1ca4:	e59f0040 	ldr	r0, [pc, #64]	; 1cec <register_tm_clones+0x4c>
    1ca8:	e59f3040 	ldr	r3, [pc, #64]	; 1cf0 <register_tm_clones+0x50>
    1cac:	e08f0000 	add	r0, pc, r0
    1cb0:	e08f3003 	add	r3, pc, r3
    1cb4:	e0603003 	rsb	r3, r0, r3
    1cb8:	e1a03143 	asr	r3, r3, #2
    1cbc:	e59f2030 	ldr	r2, [pc, #48]	; 1cf4 <register_tm_clones+0x54>
    1cc0:	e0833fa3 	add	r3, r3, r3, lsr #31
    1cc4:	e1b030c3 	asrs	r3, r3, #1
    1cc8:	e08f2002 	add	r2, pc, r2
    1ccc:	08bd8008 	popeq	{r3, pc}
    1cd0:	e59f1020 	ldr	r1, [pc, #32]	; 1cf8 <register_tm_clones+0x58>
    1cd4:	e7922001 	ldr	r2, [r2, r1]
    1cd8:	e3520000 	cmp	r2, #0
    1cdc:	08bd8008 	popeq	{r3, pc}
    1ce0:	e1a01003 	mov	r1, r3
    1ce4:	e12fff32 	blx	r2
    1ce8:	e8bd8008 	pop	{r3, pc}
    1cec:	0000e624 	andeq	lr, r0, r4, lsr #12
    1cf0:	0000e620 	andeq	lr, r0, r0, lsr #12
    1cf4:	0000e460 	andeq	lr, r0, r0, ror #8
    1cf8:	00000184 	andeq	r0, r0, r4, lsl #3

00001cfc <__do_global_dtors_aux>:
    1cfc:	e59f3068 	ldr	r3, [pc, #104]	; 1d6c <__do_global_dtors_aux+0x70>
    1d00:	e92d4010 	push	{r4, lr}
    1d04:	e08f3003 	add	r3, pc, r3
    1d08:	e5d33000 	ldrb	r3, [r3]
    1d0c:	e59f405c 	ldr	r4, [pc, #92]	; 1d70 <__do_global_dtors_aux+0x74>
    1d10:	e3530000 	cmp	r3, #0
    1d14:	e08f4004 	add	r4, pc, r4
    1d18:	18bd8010 	popne	{r4, pc}
    1d1c:	e59f3050 	ldr	r3, [pc, #80]	; 1d74 <__do_global_dtors_aux+0x78>
    1d20:	e7943003 	ldr	r3, [r4, r3]
    1d24:	e3530000 	cmp	r3, #0
    1d28:	0a000002 	beq	1d38 <__do_global_dtors_aux+0x3c>
    1d2c:	e59f3044 	ldr	r3, [pc, #68]	; 1d78 <__do_global_dtors_aux+0x7c>
    1d30:	e79f0003 	ldr	r0, [pc, r3]
    1d34:	ebfffed7 	bl	1898 <_init+0x44>
    1d38:	ebffffc3 	bl	1c4c <deregister_tm_clones>
    1d3c:	e59f3038 	ldr	r3, [pc, #56]	; 1d7c <__do_global_dtors_aux+0x80>
    1d40:	e7943003 	ldr	r3, [r4, r3]
    1d44:	e3530000 	cmp	r3, #0
    1d48:	0a000002 	beq	1d58 <__do_global_dtors_aux+0x5c>
    1d4c:	e59f002c 	ldr	r0, [pc, #44]	; 1d80 <__do_global_dtors_aux+0x84>
    1d50:	e08f0000 	add	r0, pc, r0
    1d54:	ebffff68 	bl	1afc <_init+0x2a8>
    1d58:	e59f3024 	ldr	r3, [pc, #36]	; 1d84 <__do_global_dtors_aux+0x88>
    1d5c:	e3a02001 	mov	r2, #1
    1d60:	e08f3003 	add	r3, pc, r3
    1d64:	e5c32000 	strb	r2, [r3]
    1d68:	e8bd8010 	pop	{r4, pc}
    1d6c:	0000e5cc 	andeq	lr, r0, ip, asr #11
    1d70:	0000e414 	andeq	lr, r0, r4, lsl r4
    1d74:	0000014c 	andeq	r0, r0, ip, asr #2
    1d78:	0000e580 	andeq	lr, r0, r0, lsl #11
    1d7c:	00000164 	andeq	r0, r0, r4, ror #2
    1d80:	000062c8 	andeq	r6, r0, r8, asr #5
    1d84:	0000e570 	andeq	lr, r0, r0, ror r5

00001d88 <frame_dummy>:
    1d88:	e92d4010 	push	{r4, lr}
    1d8c:	e59f4054 	ldr	r4, [pc, #84]	; 1de8 <frame_dummy+0x60>
    1d90:	e59f3054 	ldr	r3, [pc, #84]	; 1dec <frame_dummy+0x64>
    1d94:	e08f4004 	add	r4, pc, r4
    1d98:	e7943003 	ldr	r3, [r4, r3]
    1d9c:	e3530000 	cmp	r3, #0
    1da0:	0a000004 	beq	1db8 <frame_dummy+0x30>
    1da4:	e59f0044 	ldr	r0, [pc, #68]	; 1df0 <frame_dummy+0x68>
    1da8:	e59f1044 	ldr	r1, [pc, #68]	; 1df4 <frame_dummy+0x6c>
    1dac:	e08f0000 	add	r0, pc, r0
    1db0:	e08f1001 	add	r1, pc, r1
    1db4:	ebffff56 	bl	1b14 <_init+0x2c0>
    1db8:	e59f0038 	ldr	r0, [pc, #56]	; 1df8 <frame_dummy+0x70>
    1dbc:	e08f0000 	add	r0, pc, r0
    1dc0:	e5903000 	ldr	r3, [r0]
    1dc4:	e3530000 	cmp	r3, #0
    1dc8:	0a000004 	beq	1de0 <frame_dummy+0x58>
    1dcc:	e59f3028 	ldr	r3, [pc, #40]	; 1dfc <frame_dummy+0x74>
    1dd0:	e7943003 	ldr	r3, [r4, r3]
    1dd4:	e3530000 	cmp	r3, #0
    1dd8:	0a000000 	beq	1de0 <frame_dummy+0x58>
    1ddc:	e12fff33 	blx	r3
    1de0:	e8bd4010 	pop	{r4, lr}
    1de4:	eaffffad 	b	1ca0 <register_tm_clones>
    1de8:	0000e394 	muleq	r0, r4, r3
    1dec:	0000016c 	andeq	r0, r0, ip, ror #2
    1df0:	0000626c 	andeq	r6, r0, ip, ror #4
    1df4:	0000e524 	andeq	lr, r0, r4, lsr #10
    1df8:	0000e270 	andeq	lr, r0, r0, ror r2
    1dfc:	0000017c 	andeq	r0, r0, ip, ror r1

00001e00 <xeno_get_current>:
    1e00:	e92d4800 	push	{fp, lr}
    1e04:	e28db004 	add	fp, sp, #4
    1e08:	e24dd008 	sub	sp, sp, #8
    1e0c:	e59f203c 	ldr	r2, [pc, #60]	; 1e50 <xeno_get_current+0x50>
    1e10:	e08f2002 	add	r2, pc, r2
    1e14:	e59f3038 	ldr	r3, [pc, #56]	; 1e54 <xeno_get_current+0x54>
    1e18:	e7923003 	ldr	r3, [r2, r3]
    1e1c:	e5933000 	ldr	r3, [r3]
    1e20:	e1a00003 	mov	r0, r3
    1e24:	ebffff7c 	bl	1c1c <_init+0x3c8>
    1e28:	e50b0008 	str	r0, [fp, #-8]
    1e2c:	e51b3008 	ldr	r3, [fp, #-8]
    1e30:	e3530000 	cmp	r3, #0
    1e34:	0a000000 	beq	1e3c <xeno_get_current+0x3c>
    1e38:	ea000001 	b	1e44 <xeno_get_current+0x44>
    1e3c:	ebfffed7 	bl	19a0 <_init+0x14c>
    1e40:	e1a03000 	mov	r3, r0
    1e44:	e1a00003 	mov	r0, r3
    1e48:	e24bd004 	sub	sp, fp, #4
    1e4c:	e8bd8800 	pop	{fp, pc}
    1e50:	0000e318 	andeq	lr, r0, r8, lsl r3
    1e54:	00000174 	andeq	r0, r0, r4, ror r1

00001e58 <xeno_get_current_fast>:
    1e58:	e92d4800 	push	{fp, lr}
    1e5c:	e28db004 	add	fp, sp, #4
    1e60:	e24dd008 	sub	sp, sp, #8
    1e64:	e59f2028 	ldr	r2, [pc, #40]	; 1e94 <xeno_get_current_fast+0x3c>
    1e68:	e08f2002 	add	r2, pc, r2
    1e6c:	e59f3024 	ldr	r3, [pc, #36]	; 1e98 <xeno_get_current_fast+0x40>
    1e70:	e7923003 	ldr	r3, [r2, r3]
    1e74:	e5933000 	ldr	r3, [r3]
    1e78:	e1a00003 	mov	r0, r3
    1e7c:	ebffff66 	bl	1c1c <_init+0x3c8>
    1e80:	e50b0008 	str	r0, [fp, #-8]
    1e84:	e51b3008 	ldr	r3, [fp, #-8]
    1e88:	e1a00003 	mov	r0, r3
    1e8c:	e24bd004 	sub	sp, fp, #4
    1e90:	e8bd8800 	pop	{fp, pc}
    1e94:	0000e2c0 	andeq	lr, r0, r0, asr #5
    1e98:	00000174 	andeq	r0, r0, r4, ror r1

00001e9c <xeno_get_current_mode>:
    1e9c:	e92d4800 	push	{fp, lr}
    1ea0:	e28db004 	add	fp, sp, #4
    1ea4:	e24dd008 	sub	sp, sp, #8
    1ea8:	e59f2040 	ldr	r2, [pc, #64]	; 1ef0 <xeno_get_current_mode+0x54>
    1eac:	e08f2002 	add	r2, pc, r2
    1eb0:	e59f303c 	ldr	r3, [pc, #60]	; 1ef4 <xeno_get_current_mode+0x58>
    1eb4:	e7923003 	ldr	r3, [r2, r3]
    1eb8:	e5933000 	ldr	r3, [r3]
    1ebc:	e1a00003 	mov	r0, r3
    1ec0:	ebffff55 	bl	1c1c <_init+0x3c8>
    1ec4:	e50b0008 	str	r0, [fp, #-8]
    1ec8:	e51b3008 	ldr	r3, [fp, #-8]
    1ecc:	e3530000 	cmp	r3, #0
    1ed0:	0a000002 	beq	1ee0 <xeno_get_current_mode+0x44>
    1ed4:	e51b3008 	ldr	r3, [fp, #-8]
    1ed8:	e5933000 	ldr	r3, [r3]
    1edc:	ea000000 	b	1ee4 <xeno_get_current_mode+0x48>
    1ee0:	e3a03c02 	mov	r3, #512	; 0x200
    1ee4:	e1a00003 	mov	r0, r3
    1ee8:	e24bd004 	sub	sp, fp, #4
    1eec:	e8bd8800 	pop	{fp, pc}
    1ef0:	0000e27c 	andeq	lr, r0, ip, ror r2
    1ef4:	00000154 	andeq	r0, r0, r4, asr r1

00001ef8 <assert_nrt_inner>:
    1ef8:	e92d4890 	push	{r4, r7, fp, lr}
    1efc:	e28db00c 	add	fp, sp, #12
    1f00:	e24dd068 	sub	sp, sp, #104	; 0x68
    1f04:	e59f209c 	ldr	r2, [pc, #156]	; 1fa8 <assert_nrt_inner+0xb0>
    1f08:	e08f2002 	add	r2, pc, r2
    1f0c:	e59f3098 	ldr	r3, [pc, #152]	; 1fac <assert_nrt_inner+0xb4>
    1f10:	e50b3010 	str	r3, [fp, #-16]
    1f14:	e24b3074 	sub	r3, fp, #116	; 0x74
    1f18:	e50b3014 	str	r3, [fp, #-20]
    1f1c:	e51b0010 	ldr	r0, [fp, #-16]
    1f20:	e51b1014 	ldr	r1, [fp, #-20]
    1f24:	e59f7084 	ldr	r7, [pc, #132]	; 1fb0 <assert_nrt_inner+0xb8>
    1f28:	ef000000 	svc	0x00000000
    1f2c:	e1a03000 	mov	r3, r0
    1f30:	e50b3018 	str	r3, [fp, #-24]
    1f34:	e51b3018 	ldr	r3, [fp, #-24]
    1f38:	e3530000 	cmp	r3, #0
    1f3c:	0a00000e 	beq	1f7c <assert_nrt_inner+0x84>
    1f40:	e59f306c 	ldr	r3, [pc, #108]	; 1fb4 <assert_nrt_inner+0xbc>
    1f44:	e7923003 	ldr	r3, [r2, r3]
    1f48:	e5934000 	ldr	r4, [r3]
    1f4c:	e51b3018 	ldr	r3, [fp, #-24]
    1f50:	e2633000 	rsb	r3, r3, #0
    1f54:	e1a00003 	mov	r0, r3
    1f58:	ebfffeb4 	bl	1a30 <_init+0x1dc>
    1f5c:	e1a03000 	mov	r3, r0
    1f60:	e1a00004 	mov	r0, r4
    1f64:	e59f204c 	ldr	r2, [pc, #76]	; 1fb8 <assert_nrt_inner+0xc0>
    1f68:	e08f2002 	add	r2, pc, r2
    1f6c:	e1a01002 	mov	r1, r2
    1f70:	e1a02003 	mov	r2, r3
    1f74:	ebfffec5 	bl	1a90 <_init+0x23c>
    1f78:	ea000008 	b	1fa0 <assert_nrt_inner+0xa8>
    1f7c:	e51b3074 	ldr	r3, [fp, #-116]	; 0x74
    1f80:	e2033701 	and	r3, r3, #262144	; 0x40000
    1f84:	e3530000 	cmp	r3, #0
    1f88:	0a000004 	beq	1fa0 <assert_nrt_inner+0xa8>
    1f8c:	ebfffe5f 	bl	1910 <_init+0xbc>
    1f90:	e1a03000 	mov	r3, r0
    1f94:	e1a00003 	mov	r0, r3
    1f98:	e3a01018 	mov	r1, #24
    1f9c:	ebfffee2 	bl	1b2c <_init+0x2d8>
    1fa0:	e24bd00c 	sub	sp, fp, #12
    1fa4:	e8bd8890 	pop	{r4, r7, fp, pc}
    1fa8:	0000e220 	andeq	lr, r0, r0, lsr #4
    1fac:	0900022b 	stmdbeq	r0, {r0, r1, r3, r5, r9}
    1fb0:	000f0042 	andeq	r0, pc, r2, asr #32
    1fb4:	00000158 	andeq	r0, r0, r8, asr r1
    1fb8:	00005c5c 	andeq	r5, r0, ip, asr ip

00001fbc <assert_nrt>:
    1fbc:	e92d4800 	push	{fp, lr}
    1fc0:	e28db004 	add	fp, sp, #4
    1fc4:	ebffff8d 	bl	1e00 <xeno_get_current>
    1fc8:	e1a03000 	mov	r3, r0
    1fcc:	e3530000 	cmp	r3, #0
    1fd0:	0a000006 	beq	1ff0 <assert_nrt+0x34>
    1fd4:	ebffffb0 	bl	1e9c <xeno_get_current_mode>
    1fd8:	e1a03000 	mov	r3, r0
    1fdc:	e2033c02 	and	r3, r3, #512	; 0x200
    1fe0:	e3530000 	cmp	r3, #0
    1fe4:	1a000001 	bne	1ff0 <assert_nrt+0x34>
    1fe8:	e3a03001 	mov	r3, #1
    1fec:	ea000000 	b	1ff4 <assert_nrt+0x38>
    1ff0:	e3a03000 	mov	r3, #0
    1ff4:	e3530000 	cmp	r3, #0
    1ff8:	03a03000 	moveq	r3, #0
    1ffc:	13a03001 	movne	r3, #1
    2000:	e20330ff 	and	r3, r3, #255	; 0xff
    2004:	e3530000 	cmp	r3, #0
    2008:	0a000000 	beq	2010 <assert_nrt+0x54>
    200c:	ebffffb9 	bl	1ef8 <assert_nrt_inner>
    2010:	e8bd8800 	pop	{fp, pc}

00002014 <assert_nrt_fast>:
    2014:	e92d4800 	push	{fp, lr}
    2018:	e28db004 	add	fp, sp, #4
    201c:	ebffff8d 	bl	1e58 <xeno_get_current_fast>
    2020:	e1a03000 	mov	r3, r0
    2024:	e3530000 	cmp	r3, #0
    2028:	0a000006 	beq	2048 <assert_nrt_fast+0x34>
    202c:	ebffff9a 	bl	1e9c <xeno_get_current_mode>
    2030:	e1a03000 	mov	r3, r0
    2034:	e2033c02 	and	r3, r3, #512	; 0x200
    2038:	e3530000 	cmp	r3, #0
    203c:	1a000001 	bne	2048 <assert_nrt_fast+0x34>
    2040:	e3a03001 	mov	r3, #1
    2044:	ea000000 	b	204c <assert_nrt_fast+0x38>
    2048:	e3a03000 	mov	r3, #0
    204c:	e3530000 	cmp	r3, #0
    2050:	03a03000 	moveq	r3, #0
    2054:	13a03001 	movne	r3, #1
    2058:	e20330ff 	and	r3, r3, #255	; 0xff
    205c:	e3530000 	cmp	r3, #0
    2060:	0a000000 	beq	2068 <assert_nrt_fast+0x54>
    2064:	ebffffa3 	bl	1ef8 <assert_nrt_inner>
    2068:	e8bd8800 	pop	{fp, pc}

0000206c <__wrap_malloc>:
    206c:	e92d4800 	push	{fp, lr}
    2070:	e28db004 	add	fp, sp, #4
    2074:	e24dd008 	sub	sp, sp, #8
    2078:	e50b0008 	str	r0, [fp, #-8]
    207c:	ebfffe32 	bl	194c <_init+0xf8>
    2080:	e51b0008 	ldr	r0, [fp, #-8]
    2084:	ebfffeb7 	bl	1b68 <_init+0x314>
    2088:	e1a03000 	mov	r3, r0
    208c:	e1a00003 	mov	r0, r3
    2090:	e24bd004 	sub	sp, fp, #4
    2094:	e8bd8800 	pop	{fp, pc}

00002098 <__wrap_free>:
    2098:	e92d4800 	push	{fp, lr}
    209c:	e28db004 	add	fp, sp, #4
    20a0:	e24dd008 	sub	sp, sp, #8
    20a4:	e50b0008 	str	r0, [fp, #-8]
    20a8:	ebfffe27 	bl	194c <_init+0xf8>
    20ac:	e51b0008 	ldr	r0, [fp, #-8]
    20b0:	ebfffeb8 	bl	1b98 <_init+0x344>
    20b4:	e24bd004 	sub	sp, fp, #4
    20b8:	e8bd8800 	pop	{fp, pc}

000020bc <__wrap_gettimeofday>:
    20bc:	e92d4800 	push	{fp, lr}
    20c0:	e28db004 	add	fp, sp, #4
    20c4:	e24dd008 	sub	sp, sp, #8
    20c8:	e50b0008 	str	r0, [fp, #-8]
    20cc:	e50b100c 	str	r1, [fp, #-12]
    20d0:	ebfffe1d 	bl	194c <_init+0xf8>
    20d4:	e51b0008 	ldr	r0, [fp, #-8]
    20d8:	e51b100c 	ldr	r1, [fp, #-12]
    20dc:	ebfffe2c 	bl	1994 <_init+0x140>
    20e0:	e1a03000 	mov	r3, r0
    20e4:	e1a00003 	mov	r0, r3
    20e8:	e24bd004 	sub	sp, fp, #4
    20ec:	e8bd8800 	pop	{fp, pc}

000020f0 <xeno_stacksize>:
    20f0:	e92d4800 	push	{fp, lr}
    20f4:	e28db004 	add	fp, sp, #4
    20f8:	e24dd008 	sub	sp, sp, #8
    20fc:	e50b0008 	str	r0, [fp, #-8]
    2100:	e59f307c 	ldr	r3, [pc, #124]	; 2184 <xeno_stacksize+0x94>
    2104:	e08f3003 	add	r3, pc, r3
    2108:	e5933000 	ldr	r3, [r3]
    210c:	e3530000 	cmp	r3, #0
    2110:	1a000006 	bne	2130 <xeno_stacksize+0x40>
    2114:	ebfffe60 	bl	1a9c <_init+0x248>
    2118:	e1a03000 	mov	r3, r0
    211c:	e2833901 	add	r3, r3, #16384	; 0x4000
    2120:	e1a02003 	mov	r2, r3
    2124:	e59f305c 	ldr	r3, [pc, #92]	; 2188 <xeno_stacksize+0x98>
    2128:	e08f3003 	add	r3, pc, r3
    212c:	e5832000 	str	r2, [r3]
    2130:	e51b3008 	ldr	r3, [fp, #-8]
    2134:	e3530000 	cmp	r3, #0
    2138:	1a000003 	bne	214c <xeno_stacksize+0x5c>
    213c:	e59f3048 	ldr	r3, [pc, #72]	; 218c <xeno_stacksize+0x9c>
    2140:	e08f3003 	add	r3, pc, r3
    2144:	e5933000 	ldr	r3, [r3]
    2148:	e50b3008 	str	r3, [fp, #-8]
    214c:	e59f303c 	ldr	r3, [pc, #60]	; 2190 <xeno_stacksize+0xa0>
    2150:	e08f3003 	add	r3, pc, r3
    2154:	e5933000 	ldr	r3, [r3]
    2158:	e51b2008 	ldr	r2, [fp, #-8]
    215c:	e1520003 	cmp	r2, r3
    2160:	2a000003 	bcs	2174 <xeno_stacksize+0x84>
    2164:	e59f3028 	ldr	r3, [pc, #40]	; 2194 <xeno_stacksize+0xa4>
    2168:	e08f3003 	add	r3, pc, r3
    216c:	e5933000 	ldr	r3, [r3]
    2170:	e50b3008 	str	r3, [fp, #-8]
    2174:	e51b3008 	ldr	r3, [fp, #-8]
    2178:	e1a00003 	mov	r0, r3
    217c:	e24bd004 	sub	sp, fp, #4
    2180:	e8bd8800 	pop	{fp, pc}
    2184:	0000e1ec 	andeq	lr, r0, ip, ror #3
    2188:	0000e1c8 	andeq	lr, r0, r8, asr #3
    218c:	00005d28 	andeq	r5, r0, r8, lsr #26
    2190:	0000e1a0 	andeq	lr, r0, r0, lsr #3
    2194:	0000e188 	andeq	lr, r0, r8, lsl #3

00002198 <xeno_arm_features_check>:
    2198:	e92d4890 	push	{r4, r7, fp, lr}
    219c:	e28db00c 	add	fp, sp, #12
    21a0:	e24dd030 	sub	sp, sp, #48	; 0x30
    21a4:	e50b0030 	str	r0, [fp, #-48]	; 0x30
    21a8:	e59f41dc 	ldr	r4, [pc, #476]	; 238c <xeno_arm_features_check+0x1f4>
    21ac:	e08f4004 	add	r4, pc, r4
    21b0:	e59f31d8 	ldr	r3, [pc, #472]	; 2390 <xeno_arm_features_check+0x1f8>
    21b4:	e7943003 	ldr	r3, [r4, r3]
    21b8:	e5933000 	ldr	r3, [r3]
    21bc:	e3730001 	cmn	r3, #1
    21c0:	1a00006e 	bne	2380 <xeno_arm_features_check+0x1e8>
    21c4:	e59f31c8 	ldr	r3, [pc, #456]	; 2394 <xeno_arm_features_check+0x1fc>
    21c8:	e50b3010 	str	r3, [fp, #-16]
    21cc:	e3a03004 	mov	r3, #4
    21d0:	e50b3014 	str	r3, [fp, #-20]
    21d4:	e59f31b4 	ldr	r3, [pc, #436]	; 2390 <xeno_arm_features_check+0x1f8>
    21d8:	e7943003 	ldr	r3, [r4, r3]
    21dc:	e50b3018 	str	r3, [fp, #-24]
    21e0:	e51b0010 	ldr	r0, [fp, #-16]
    21e4:	e51b1014 	ldr	r1, [fp, #-20]
    21e8:	e51b2018 	ldr	r2, [fp, #-24]
    21ec:	e59f71a4 	ldr	r7, [pc, #420]	; 2398 <xeno_arm_features_check+0x200>
    21f0:	ef000000 	svc	0x00000000
    21f4:	e1a03000 	mov	r3, r0
    21f8:	e50b301c 	str	r3, [fp, #-28]
    21fc:	e51b301c 	ldr	r3, [fp, #-28]
    2200:	e3530000 	cmp	r3, #0
    2204:	1a000037 	bne	22e8 <xeno_arm_features_check+0x150>
    2208:	e59f318c 	ldr	r3, [pc, #396]	; 239c <xeno_arm_features_check+0x204>
    220c:	e08f3003 	add	r3, pc, r3
    2210:	e1a00003 	mov	r0, r3
    2214:	e59f1184 	ldr	r1, [pc, #388]	; 23a0 <xeno_arm_features_check+0x208>
    2218:	ebfffe0d 	bl	1a54 <_init+0x200>
    221c:	e50b0020 	str	r0, [fp, #-32]
    2220:	e51b3020 	ldr	r3, [fp, #-32]
    2224:	e3730001 	cmn	r3, #1
    2228:	1a000005 	bne	2244 <xeno_arm_features_check+0xac>
    222c:	e59f3170 	ldr	r3, [pc, #368]	; 23a4 <xeno_arm_features_check+0x20c>
    2230:	e08f3003 	add	r3, pc, r3
    2234:	e1a00003 	mov	r0, r3
    2238:	ebfffdd2 	bl	1988 <_init+0x134>
    223c:	e3a00001 	mov	r0, #1
    2240:	ebfffe06 	bl	1a60 <_init+0x20c>
    2244:	e3a0001e 	mov	r0, #30
    2248:	ebfffdcb 	bl	197c <_init+0x128>
    224c:	e1a03000 	mov	r3, r0
    2250:	e50b3024 	str	r3, [fp, #-36]	; 0x24
    2254:	e59f3134 	ldr	r3, [pc, #308]	; 2390 <xeno_arm_features_check+0x1f8>
    2258:	e7943003 	ldr	r3, [r4, r3]
    225c:	e5933000 	ldr	r3, [r3]
    2260:	e3530000 	cmp	r3, #0
    2264:	0a000020 	beq	22ec <xeno_arm_features_check+0x154>
    2268:	e59f3138 	ldr	r3, [pc, #312]	; 23a8 <xeno_arm_features_check+0x210>
    226c:	e5933000 	ldr	r3, [r3]
    2270:	e2833003 	add	r3, r3, #3
    2274:	e1a02283 	lsl	r2, r3, #5
    2278:	e59f312c 	ldr	r3, [pc, #300]	; 23ac <xeno_arm_features_check+0x214>
    227c:	e0623003 	rsb	r3, r2, r3
    2280:	e1a02003 	mov	r2, r3
    2284:	e59f3104 	ldr	r3, [pc, #260]	; 2390 <xeno_arm_features_check+0x1f8>
    2288:	e7943003 	ldr	r3, [r4, r3]
    228c:	e5832014 	str	r2, [r3, #20]
    2290:	e1a00000 	nop			; (mov r0, r0)
    2294:	e59f30f4 	ldr	r3, [pc, #244]	; 2390 <xeno_arm_features_check+0x1f8>
    2298:	e7943003 	ldr	r3, [r4, r3]
    229c:	e5933008 	ldr	r3, [r3, #8]
    22a0:	e50b3028 	str	r3, [fp, #-40]	; 0x28
    22a4:	e51b3024 	ldr	r3, [fp, #-36]	; 0x24
    22a8:	e2632000 	rsb	r2, r3, #0
    22ac:	e51b3028 	ldr	r3, [fp, #-40]	; 0x28
    22b0:	e0023003 	and	r3, r2, r3
    22b4:	e51b2020 	ldr	r2, [fp, #-32]
    22b8:	e58d2000 	str	r2, [sp]
    22bc:	e58d3004 	str	r3, [sp, #4]
    22c0:	e3a00000 	mov	r0, #0
    22c4:	e51b1024 	ldr	r1, [fp, #-36]	; 0x24
    22c8:	e3a02001 	mov	r2, #1
    22cc:	e3a03001 	mov	r3, #1
    22d0:	ebfffdeb 	bl	1a84 <_init+0x230>
    22d4:	e50b002c 	str	r0, [fp, #-44]	; 0x2c
    22d8:	e51b302c 	ldr	r3, [fp, #-44]	; 0x2c
    22dc:	e3730001 	cmn	r3, #1
    22e0:	1a000012 	bne	2330 <xeno_arm_features_check+0x198>
    22e4:	ea00000b 	b	2318 <xeno_arm_features_check+0x180>
    22e8:	e1a00000 	nop			; (mov r0, r0)
    22ec:	e59f30bc 	ldr	r3, [pc, #188]	; 23b0 <xeno_arm_features_check+0x218>
    22f0:	e7943003 	ldr	r3, [r4, r3]
    22f4:	e5933000 	ldr	r3, [r3]
    22f8:	e1a00003 	mov	r0, r3
    22fc:	e59f30b0 	ldr	r3, [pc, #176]	; 23b4 <xeno_arm_features_check+0x21c>
    2300:	e08f3003 	add	r3, pc, r3
    2304:	e1a01003 	mov	r1, r3
    2308:	e51b201c 	ldr	r2, [fp, #-28]
    230c:	ebfffddf 	bl	1a90 <_init+0x23c>
    2310:	e3a00001 	mov	r0, #1
    2314:	ebfffdd1 	bl	1a60 <_init+0x20c>
    2318:	e59f3098 	ldr	r3, [pc, #152]	; 23b8 <xeno_arm_features_check+0x220>
    231c:	e08f3003 	add	r3, pc, r3
    2320:	e1a00003 	mov	r0, r3
    2324:	ebfffd97 	bl	1988 <_init+0x134>
    2328:	e3a00001 	mov	r0, #1
    232c:	ebfffdcb 	bl	1a60 <_init+0x20c>
    2330:	e51b3024 	ldr	r3, [fp, #-36]	; 0x24
    2334:	e2432001 	sub	r2, r3, #1
    2338:	e51b3028 	ldr	r3, [fp, #-40]	; 0x28
    233c:	e0023003 	and	r3, r2, r3
    2340:	e51b202c 	ldr	r2, [fp, #-44]	; 0x2c
    2344:	e0822003 	add	r2, r2, r3
    2348:	e59f3040 	ldr	r3, [pc, #64]	; 2390 <xeno_arm_features_check+0x1f8>
    234c:	e7943003 	ldr	r3, [r4, r3]
    2350:	e5832008 	str	r2, [r3, #8]
    2354:	e51b0020 	ldr	r0, [fp, #-32]
    2358:	ebfffe2c 	bl	1c10 <_init+0x3bc>
    235c:	e1a03000 	mov	r3, r0
    2360:	e3530000 	cmp	r3, #0
    2364:	0a000006 	beq	2384 <xeno_arm_features_check+0x1ec>
    2368:	e59f304c 	ldr	r3, [pc, #76]	; 23bc <xeno_arm_features_check+0x224>
    236c:	e08f3003 	add	r3, pc, r3
    2370:	e1a00003 	mov	r0, r3
    2374:	ebfffd83 	bl	1988 <_init+0x134>
    2378:	e3a00001 	mov	r0, #1
    237c:	ebfffdb7 	bl	1a60 <_init+0x20c>
    2380:	e1a00000 	nop			; (mov r0, r0)
    2384:	e24bd00c 	sub	sp, fp, #12
    2388:	e8bd8890 	pop	{r4, r7, fp, pc}
    238c:	0000df7c 	andeq	sp, r0, ip, ror pc
    2390:	00000160 	andeq	r0, r0, r0, ror #2
    2394:	0500022b 	streq	r0, [r0, #-555]	; 0x22b
    2398:	000f0042 	andeq	r0, pc, r2, asr #32
    239c:	000059dc 	ldrdeq	r5, [r0], -ip
    23a0:	00101000 	andseq	r1, r0, r0
    23a4:	000059c4 	andeq	r5, r0, r4, asr #19
    23a8:	ffff0ffc 			; <UNDEFINED> instruction: 0xffff0ffc
    23ac:	ffff1004 			; <UNDEFINED> instruction: 0xffff1004
    23b0:	00000158 	andeq	r0, r0, r8, asr r1
    23b4:	00005914 	andeq	r5, r0, r4, lsl r9
    23b8:	0000594c 	andeq	r5, r0, ip, asr #18
    23bc:	0000591c 	andeq	r5, r0, ip, lsl r9

000023c0 <xeno_sigill_handler>:
    23c0:	e92d4800 	push	{fp, lr}
    23c4:	e28db004 	add	fp, sp, #4
    23c8:	e24dd008 	sub	sp, sp, #8
    23cc:	e50b0008 	str	r0, [fp, #-8]
    23d0:	e59f202c 	ldr	r2, [pc, #44]	; 2404 <xeno_sigill_handler+0x44>
    23d4:	e08f2002 	add	r2, pc, r2
    23d8:	e59f3028 	ldr	r3, [pc, #40]	; 2408 <xeno_sigill_handler+0x48>
    23dc:	e7923003 	ldr	r3, [r2, r3]
    23e0:	e5933000 	ldr	r3, [r3]
    23e4:	e59f2020 	ldr	r2, [pc, #32]	; 240c <xeno_sigill_handler+0x4c>
    23e8:	e08f2002 	add	r2, pc, r2
    23ec:	e1a00002 	mov	r0, r2
    23f0:	e3a01001 	mov	r1, #1
    23f4:	e3a02048 	mov	r2, #72	; 0x48
    23f8:	ebfffd6e 	bl	19b8 <_init+0x164>
    23fc:	e3a00001 	mov	r0, #1
    2400:	ebfffd96 	bl	1a60 <_init+0x20c>
    2404:	0000dd54 	andeq	sp, r0, r4, asr sp
    2408:	00000158 	andeq	r0, r0, r8, asr r1
    240c:	000058c0 	andeq	r5, r0, r0, asr #17

00002410 <do_init_arch_features>:
    2410:	e92d4800 	push	{fp, lr}
    2414:	e28db004 	add	fp, sp, #4
    2418:	e59f2014 	ldr	r2, [pc, #20]	; 2434 <do_init_arch_features+0x24>
    241c:	e08f2002 	add	r2, pc, r2
    2420:	e59f3010 	ldr	r3, [pc, #16]	; 2438 <do_init_arch_features+0x28>
    2424:	e7923003 	ldr	r3, [r2, r3]
    2428:	e1a00003 	mov	r0, r3
    242c:	ebffff59 	bl	2198 <xeno_arm_features_check>
    2430:	e8bd8800 	pop	{fp, pc}
    2434:	0000dd0c 	andeq	sp, r0, ip, lsl #26
    2438:	00000168 	andeq	r0, r0, r8, ror #2

0000243c <xeno_init_arch_features>:
    243c:	e92d4800 	push	{fp, lr}
    2440:	e28db004 	add	fp, sp, #4
    2444:	e59f3018 	ldr	r3, [pc, #24]	; 2464 <xeno_init_arch_features+0x28>
    2448:	e08f3003 	add	r3, pc, r3
    244c:	e1a00003 	mov	r0, r3
    2450:	e59f3010 	ldr	r3, [pc, #16]	; 2468 <xeno_init_arch_features+0x2c>
    2454:	e08f3003 	add	r3, pc, r3
    2458:	e1a01003 	mov	r1, r3
    245c:	ebfffd76 	bl	1a3c <_init+0x1e8>
    2460:	e8bd8800 	pop	{fp, pc}
    2464:	0000deac 	andeq	sp, r0, ip, lsr #29
    2468:	ffffffb4 			; <UNDEFINED> instruction: 0xffffffb4

0000246c <xeno_bind_skin_opt>:
    246c:	e92d48b0 	push	{r4, r5, r7, fp, lr}
    2470:	e28db010 	add	fp, sp, #16
    2474:	e24ddf53 	sub	sp, sp, #332	; 0x14c
    2478:	e50b0148 	str	r0, [fp, #-328]	; 0x148
    247c:	e50b114c 	str	r1, [fp, #-332]	; 0x14c
    2480:	e50b2150 	str	r2, [fp, #-336]	; 0x150
    2484:	e59f52f8 	ldr	r5, [pc, #760]	; 2784 <xeno_bind_skin_opt+0x318>
    2488:	e08f5005 	add	r5, pc, r5
    248c:	e59f32f4 	ldr	r3, [pc, #756]	; 2788 <xeno_bind_skin_opt+0x31c>
    2490:	e08f3003 	add	r3, pc, r3
    2494:	e1a00003 	mov	r0, r3
    2498:	e3a01000 	mov	r1, #0
    249c:	ebfffd9f 	bl	1b20 <_init+0x2cc>
    24a0:	e1a03000 	mov	r3, r0
    24a4:	e3530000 	cmp	r3, #0
    24a8:	0a00000d 	beq	24e4 <xeno_bind_skin_opt+0x78>
    24ac:	e59f32d8 	ldr	r3, [pc, #728]	; 278c <xeno_bind_skin_opt+0x320>
    24b0:	e7953003 	ldr	r3, [r5, r3]
    24b4:	e5933000 	ldr	r3, [r3]
    24b8:	e1a00003 	mov	r0, r3
    24bc:	e59f32cc 	ldr	r3, [pc, #716]	; 2790 <xeno_bind_skin_opt+0x324>
    24c0:	e08f3003 	add	r3, pc, r3
    24c4:	e1a01003 	mov	r1, r3
    24c8:	e59f32c4 	ldr	r3, [pc, #708]	; 2794 <xeno_bind_skin_opt+0x328>
    24cc:	e08f3003 	add	r3, pc, r3
    24d0:	e1a02003 	mov	r2, r3
    24d4:	e3a030fe 	mov	r3, #254	; 0xfe
    24d8:	ebfffd6c 	bl	1a90 <_init+0x23c>
    24dc:	e3a00001 	mov	r0, #1
    24e0:	ebfffd5e 	bl	1a60 <_init+0x20c>
    24e4:	e3a00004 	mov	r0, #4
    24e8:	e59f32a8 	ldr	r3, [pc, #680]	; 2798 <xeno_bind_skin_opt+0x32c>
    24ec:	e08f3003 	add	r3, pc, r3
    24f0:	e1a01003 	mov	r1, r3
    24f4:	ebfffd0e 	bl	1934 <_init+0xe0>
    24f8:	e50b0018 	str	r0, [fp, #-24]
    24fc:	e51b3018 	ldr	r3, [fp, #-24]
    2500:	e3730001 	cmn	r3, #1
    2504:	1a000005 	bne	2520 <xeno_bind_skin_opt+0xb4>
    2508:	e59f328c 	ldr	r3, [pc, #652]	; 279c <xeno_bind_skin_opt+0x330>
    250c:	e08f3003 	add	r3, pc, r3
    2510:	e1a00003 	mov	r0, r3
    2514:	ebfffd1b 	bl	1988 <_init+0x134>
    2518:	e3a00001 	mov	r0, #1
    251c:	ebfffd4f 	bl	1a60 <_init+0x20c>
    2520:	e59f3278 	ldr	r3, [pc, #632]	; 27a0 <xeno_bind_skin_opt+0x334>
    2524:	e50b301c 	str	r3, [fp, #-28]
    2528:	e51b3148 	ldr	r3, [fp, #-328]	; 0x148
    252c:	e50b3020 	str	r3, [fp, #-32]
    2530:	e3a032da 	mov	r3, #-1610612723	; 0xa000000d
    2534:	e50b3024 	str	r3, [fp, #-36]	; 0x24
    2538:	e3a03004 	mov	r3, #4
    253c:	e50b3028 	str	r3, [fp, #-40]	; 0x28
    2540:	e24b3f51 	sub	r3, fp, #324	; 0x144
    2544:	e50b302c 	str	r3, [fp, #-44]	; 0x2c
    2548:	e51b001c 	ldr	r0, [fp, #-28]
    254c:	e51b1020 	ldr	r1, [fp, #-32]
    2550:	e51b2024 	ldr	r2, [fp, #-36]	; 0x24
    2554:	e51b3028 	ldr	r3, [fp, #-40]	; 0x28
    2558:	e51b402c 	ldr	r4, [fp, #-44]	; 0x2c
    255c:	e59f7240 	ldr	r7, [pc, #576]	; 27a4 <xeno_bind_skin_opt+0x338>
    2560:	ef000000 	svc	0x00000000
    2564:	e1a03000 	mov	r3, r0
    2568:	e50b3030 	str	r3, [fp, #-48]	; 0x30
    256c:	e3a00004 	mov	r0, #4
    2570:	e51b1018 	ldr	r1, [fp, #-24]
    2574:	ebfffcee 	bl	1934 <_init+0xe0>
    2578:	e51b3030 	ldr	r3, [fp, #-48]	; 0x30
    257c:	e2833026 	add	r3, r3, #38	; 0x26
    2580:	e3530023 	cmp	r3, #35	; 0x23
    2584:	908ff103 	addls	pc, pc, r3, lsl #2
    2588:	ea000053 	b	26dc <xeno_bind_skin_opt+0x270>
    258c:	ea000050 	b	26d4 <xeno_bind_skin_opt+0x268>
    2590:	ea000051 	b	26dc <xeno_bind_skin_opt+0x270>
    2594:	ea000050 	b	26dc <xeno_bind_skin_opt+0x270>
    2598:	ea00004f 	b	26dc <xeno_bind_skin_opt+0x270>
    259c:	ea00004e 	b	26dc <xeno_bind_skin_opt+0x270>
    25a0:	ea00004d 	b	26dc <xeno_bind_skin_opt+0x270>
    25a4:	ea00004c 	b	26dc <xeno_bind_skin_opt+0x270>
    25a8:	ea00004b 	b	26dc <xeno_bind_skin_opt+0x270>
    25ac:	ea00004a 	b	26dc <xeno_bind_skin_opt+0x270>
    25b0:	ea000049 	b	26dc <xeno_bind_skin_opt+0x270>
    25b4:	ea000048 	b	26dc <xeno_bind_skin_opt+0x270>
    25b8:	ea000047 	b	26dc <xeno_bind_skin_opt+0x270>
    25bc:	ea000046 	b	26dc <xeno_bind_skin_opt+0x270>
    25c0:	ea000045 	b	26dc <xeno_bind_skin_opt+0x270>
    25c4:	ea000044 	b	26dc <xeno_bind_skin_opt+0x270>
    25c8:	ea000043 	b	26dc <xeno_bind_skin_opt+0x270>
    25cc:	ea000012 	b	261c <xeno_bind_skin_opt+0x1b0>
    25d0:	ea000041 	b	26dc <xeno_bind_skin_opt+0x270>
    25d4:	ea000040 	b	26dc <xeno_bind_skin_opt+0x270>
    25d8:	ea00003f 	b	26dc <xeno_bind_skin_opt+0x270>
    25dc:	ea00003e 	b	26dc <xeno_bind_skin_opt+0x270>
    25e0:	ea00003d 	b	26dc <xeno_bind_skin_opt+0x270>
    25e4:	ea00003c 	b	26dc <xeno_bind_skin_opt+0x270>
    25e8:	ea00003b 	b	26dc <xeno_bind_skin_opt+0x270>
    25ec:	ea00003a 	b	26dc <xeno_bind_skin_opt+0x270>
    25f0:	ea000039 	b	26dc <xeno_bind_skin_opt+0x270>
    25f4:	ea000038 	b	26dc <xeno_bind_skin_opt+0x270>
    25f8:	ea000037 	b	26dc <xeno_bind_skin_opt+0x270>
    25fc:	ea000036 	b	26dc <xeno_bind_skin_opt+0x270>
    2600:	ea000035 	b	26dc <xeno_bind_skin_opt+0x270>
    2604:	ea00001d 	b	2680 <xeno_bind_skin_opt+0x214>
    2608:	ea000033 	b	26dc <xeno_bind_skin_opt+0x270>
    260c:	ea000032 	b	26dc <xeno_bind_skin_opt+0x270>
    2610:	ea000031 	b	26dc <xeno_bind_skin_opt+0x270>
    2614:	ea000030 	b	26dc <xeno_bind_skin_opt+0x270>
    2618:	ea00002d 	b	26d4 <xeno_bind_skin_opt+0x268>
    261c:	e59f3168 	ldr	r3, [pc, #360]	; 278c <xeno_bind_skin_opt+0x320>
    2620:	e7953003 	ldr	r3, [r5, r3]
    2624:	e5933000 	ldr	r3, [r3]
    2628:	e59f2178 	ldr	r2, [pc, #376]	; 27a8 <xeno_bind_skin_opt+0x33c>
    262c:	e08f2002 	add	r2, pc, r2
    2630:	e1a00002 	mov	r0, r2
    2634:	e3a01001 	mov	r1, #1
    2638:	e3a02022 	mov	r2, #34	; 0x22
    263c:	ebfffcdd 	bl	19b8 <_init+0x164>
    2640:	e59f3144 	ldr	r3, [pc, #324]	; 278c <xeno_bind_skin_opt+0x320>
    2644:	e7953003 	ldr	r3, [r5, r3]
    2648:	e5931000 	ldr	r1, [r3]
    264c:	e24b3f51 	sub	r3, fp, #324	; 0x144
    2650:	e2832048 	add	r2, r3, #72	; 0x48
    2654:	e24b3f51 	sub	r3, fp, #324	; 0x144
    2658:	e2833004 	add	r3, r3, #4
    265c:	e24b0f51 	sub	r0, fp, #324	; 0x144
    2660:	e28000d0 	add	r0, r0, #208	; 0xd0
    2664:	e58d0000 	str	r0, [sp]
    2668:	e1a00001 	mov	r0, r1
    266c:	e59f1138 	ldr	r1, [pc, #312]	; 27ac <xeno_bind_skin_opt+0x340>
    2670:	e08f1001 	add	r1, pc, r1
    2674:	ebfffd05 	bl	1a90 <_init+0x23c>
    2678:	e3a00001 	mov	r0, #1
    267c:	ebfffcf7 	bl	1a60 <_init+0x20c>
    2680:	e59f3104 	ldr	r3, [pc, #260]	; 278c <xeno_bind_skin_opt+0x320>
    2684:	e7953003 	ldr	r3, [r5, r3]
    2688:	e5933000 	ldr	r3, [r3]
    268c:	e59f211c 	ldr	r2, [pc, #284]	; 27b0 <xeno_bind_skin_opt+0x344>
    2690:	e08f2002 	add	r2, pc, r2
    2694:	e1a00002 	mov	r0, r2
    2698:	e3a01001 	mov	r1, #1
    269c:	e3a02029 	mov	r2, #41	; 0x29
    26a0:	ebfffcc4 	bl	19b8 <_init+0x164>
    26a4:	e59f30e0 	ldr	r3, [pc, #224]	; 278c <xeno_bind_skin_opt+0x320>
    26a8:	e7953003 	ldr	r3, [r5, r3]
    26ac:	e5932000 	ldr	r2, [r3]
    26b0:	e51b3034 	ldr	r3, [fp, #-52]	; 0x34
    26b4:	e1a00002 	mov	r0, r2
    26b8:	e59f20f4 	ldr	r2, [pc, #244]	; 27b4 <xeno_bind_skin_opt+0x348>
    26bc:	e08f2002 	add	r2, pc, r2
    26c0:	e1a01002 	mov	r1, r2
    26c4:	e3a02004 	mov	r2, #4
    26c8:	ebfffcf0 	bl	1a90 <_init+0x23c>
    26cc:	e3a00001 	mov	r0, #1
    26d0:	ebfffce2 	bl	1a60 <_init+0x20c>
    26d4:	e3e03000 	mvn	r3, #0
    26d8:	ea000026 	b	2778 <xeno_bind_skin_opt+0x30c>
    26dc:	e51b3030 	ldr	r3, [fp, #-48]	; 0x30
    26e0:	e3530000 	cmp	r3, #0
    26e4:	aa00000f 	bge	2728 <xeno_bind_skin_opt+0x2bc>
    26e8:	e59f309c 	ldr	r3, [pc, #156]	; 278c <xeno_bind_skin_opt+0x320>
    26ec:	e7953003 	ldr	r3, [r5, r3]
    26f0:	e5934000 	ldr	r4, [r3]
    26f4:	e51b3030 	ldr	r3, [fp, #-48]	; 0x30
    26f8:	e2633000 	rsb	r3, r3, #0
    26fc:	e1a00003 	mov	r0, r3
    2700:	ebfffcca 	bl	1a30 <_init+0x1dc>
    2704:	e1a03000 	mov	r3, r0
    2708:	e1a00004 	mov	r0, r4
    270c:	e59f20a4 	ldr	r2, [pc, #164]	; 27b8 <xeno_bind_skin_opt+0x34c>
    2710:	e08f2002 	add	r2, pc, r2
    2714:	e1a01002 	mov	r1, r2
    2718:	e1a02003 	mov	r2, r3
    271c:	ebfffcdb 	bl	1a90 <_init+0x23c>
    2720:	e3a00001 	mov	r0, #1
    2724:	ebfffccd 	bl	1a60 <_init+0x20c>
    2728:	e59f308c 	ldr	r3, [pc, #140]	; 27bc <xeno_bind_skin_opt+0x350>
    272c:	e7953003 	ldr	r3, [r5, r3]
    2730:	e1a01003 	mov	r1, r3
    2734:	e24b2f51 	sub	r2, fp, #324	; 0x144
    2738:	e3a03f45 	mov	r3, #276	; 0x114
    273c:	e1a00001 	mov	r0, r1
    2740:	e1a01002 	mov	r1, r2
    2744:	e1a02003 	mov	r2, r3
    2748:	ebfffc73 	bl	191c <_init+0xc8>
    274c:	ebffff3a 	bl	243c <xeno_init_arch_features>
    2750:	ebfffd19 	bl	1bbc <_init+0x368>
    2754:	ebfffcf7 	bl	1b38 <_init+0x2e4>
    2758:	ebfffc6c 	bl	1910 <_init+0xbc>
    275c:	e1a02000 	mov	r2, r0
    2760:	e59f3058 	ldr	r3, [pc, #88]	; 27c0 <xeno_bind_skin_opt+0x354>
    2764:	e08f3003 	add	r3, pc, r3
    2768:	e5832000 	str	r2, [r3]
    276c:	e51b0030 	ldr	r0, [fp, #-48]	; 0x30
    2770:	ebfffc60 	bl	18f8 <_init+0xa4>
    2774:	e51b3030 	ldr	r3, [fp, #-48]	; 0x30
    2778:	e1a00003 	mov	r0, r3
    277c:	e24bd010 	sub	sp, fp, #16
    2780:	e8bd88b0 	pop	{r4, r5, r7, fp, pc}
    2784:	0000dca0 	andeq	sp, r0, r0, lsr #25
    2788:	00005864 	andeq	r5, r0, r4, ror #16
    278c:	00000158 	andeq	r0, r0, r8, asr r1
    2790:	00005840 	andeq	r5, r0, r0, asr #16
    2794:	00005828 	andeq	r5, r0, r8, lsr #16
    2798:	fffffecc 			; <UNDEFINED> instruction: 0xfffffecc
    279c:	0000582c 	andeq	r5, r0, ip, lsr #16
    27a0:	0000022b 	andeq	r0, r0, fp, lsr #4
    27a4:	000f0042 	andeq	r0, pc, r2, asr #32
    27a8:	0000571c 	andeq	r5, r0, ip, lsl r7
    27ac:	000056fc 	strdeq	r5, [r0], -ip
    27b0:	0000571c 	andeq	r5, r0, ip, lsl r7
    27b4:	0000571c 	andeq	r5, r0, ip, lsl r7
    27b8:	00005700 	andeq	r5, r0, r0, lsl #14
    27bc:	00000168 	andeq	r0, r0, r8, ror #2
    27c0:	0000db88 	andeq	sp, r0, r8, lsl #23

000027c4 <xeno_fault_stack>:
    27c4:	e92d4df0 	push	{r4, r5, r6, r7, r8, sl, fp, lr}
    27c8:	e28db01c 	add	fp, sp, #28
    27cc:	e24dd008 	sub	sp, sp, #8
    27d0:	ebfffc4e 	bl	1910 <_init+0xbc>
    27d4:	e1a02000 	mov	r2, r0
    27d8:	e59f30a8 	ldr	r3, [pc, #168]	; 2888 <xeno_fault_stack+0xc4>
    27dc:	e08f3003 	add	r3, pc, r3
    27e0:	e5933000 	ldr	r3, [r3]
    27e4:	e1520003 	cmp	r2, r3
    27e8:	1a000024 	bne	2880 <xeno_fault_stack+0xbc>
    27ec:	e1a0300d 	mov	r3, sp
    27f0:	e1a0a003 	mov	sl, r3
    27f4:	e3a00001 	mov	r0, #1
    27f8:	ebfffe3c 	bl	20f0 <xeno_stacksize>
    27fc:	e1a02000 	mov	r2, r0
    2800:	e1a03002 	mov	r3, r2
    2804:	e2433001 	sub	r3, r3, #1
    2808:	e50b3020 	str	r3, [fp, #-32]
    280c:	e1a03002 	mov	r3, r2
    2810:	e3a04000 	mov	r4, #0
    2814:	e1a01ea3 	lsr	r1, r3, #29
    2818:	e1a08184 	lsl	r8, r4, #3
    281c:	e1818008 	orr	r8, r1, r8
    2820:	e1a07183 	lsl	r7, r3, #3
    2824:	e1a03002 	mov	r3, r2
    2828:	e3a04000 	mov	r4, #0
    282c:	e1a01ea3 	lsr	r1, r3, #29
    2830:	e1a06184 	lsl	r6, r4, #3
    2834:	e1816006 	orr	r6, r1, r6
    2838:	e1a05183 	lsl	r5, r3, #3
    283c:	e1a03002 	mov	r3, r2
    2840:	e2833007 	add	r3, r3, #7
    2844:	e1a031a3 	lsr	r3, r3, #3
    2848:	e1a03183 	lsl	r3, r3, #3
    284c:	e04dd003 	sub	sp, sp, r3
    2850:	e1a0300d 	mov	r3, sp
    2854:	e2833000 	add	r3, r3, #0
    2858:	e50b3024 	str	r3, [fp, #-36]	; 0x24
    285c:	e2423001 	sub	r3, r2, #1
    2860:	e51b2024 	ldr	r2, [fp, #-36]	; 0x24
    2864:	e3e0105a 	mvn	r1, #90	; 0x5a
    2868:	e7c21003 	strb	r1, [r2, r3]
    286c:	e51b2024 	ldr	r2, [fp, #-36]	; 0x24
    2870:	e7d22003 	ldrb	r2, [r2, r3]
    2874:	e51b3024 	ldr	r3, [fp, #-36]	; 0x24
    2878:	e5c32000 	strb	r2, [r3]
    287c:	e1a0d00a 	mov	sp, sl
    2880:	e24bd01c 	sub	sp, fp, #28
    2884:	e8bd8df0 	pop	{r4, r5, r6, r7, r8, sl, fp, pc}
    2888:	0000db10 	andeq	sp, r0, r0, lsl fp

0000288c <xeno_handle_mlock_alert>:
    288c:	e92d4810 	push	{r4, fp, lr}
    2890:	e28db008 	add	fp, sp, #8
    2894:	e24dd0a4 	sub	sp, sp, #164	; 0xa4
    2898:	e50b00a0 	str	r0, [fp, #-160]	; 0xa0
    289c:	e50b10a4 	str	r1, [fp, #-164]	; 0xa4
    28a0:	e50b20a8 	str	r2, [fp, #-168]	; 0xa8
    28a4:	e59f40a0 	ldr	r4, [pc, #160]	; 294c <xeno_handle_mlock_alert+0xc0>
    28a8:	e08f4004 	add	r4, pc, r4
    28ac:	e51b30a4 	ldr	r3, [fp, #-164]	; 0xa4
    28b0:	e5933014 	ldr	r3, [r3, #20]
    28b4:	e3530005 	cmp	r3, #5
    28b8:	1a00000f 	bne	28fc <xeno_handle_mlock_alert+0x70>
    28bc:	e59f308c 	ldr	r3, [pc, #140]	; 2950 <xeno_handle_mlock_alert+0xc4>
    28c0:	e7943003 	ldr	r3, [r4, r3]
    28c4:	e5933000 	ldr	r3, [r3]
    28c8:	e59f2084 	ldr	r2, [pc, #132]	; 2954 <xeno_handle_mlock_alert+0xc8>
    28cc:	e08f2002 	add	r2, pc, r2
    28d0:	e1a00002 	mov	r0, r2
    28d4:	e3a01001 	mov	r1, #1
    28d8:	e3a02037 	mov	r2, #55	; 0x37
    28dc:	ebfffc35 	bl	19b8 <_init+0x164>
    28e0:	e59f3068 	ldr	r3, [pc, #104]	; 2950 <xeno_handle_mlock_alert+0xc4>
    28e4:	e7943003 	ldr	r3, [r4, r3]
    28e8:	e5933000 	ldr	r3, [r3]
    28ec:	e1a00003 	mov	r0, r3
    28f0:	ebfffbf4 	bl	18c8 <_init+0x74>
    28f4:	e3a00004 	mov	r0, #4
    28f8:	ebfffc58 	bl	1a60 <_init+0x20c>
    28fc:	e3a03000 	mov	r3, #0
    2900:	e50b3098 	str	r3, [fp, #-152]	; 0x98
    2904:	e24b3098 	sub	r3, fp, #152	; 0x98
    2908:	e2833004 	add	r3, r3, #4
    290c:	e1a00003 	mov	r0, r3
    2910:	ebfffc91 	bl	1b5c <_init+0x308>
    2914:	e3a03000 	mov	r3, #0
    2918:	e50b3014 	str	r3, [fp, #-20]
    291c:	e24b3098 	sub	r3, fp, #152	; 0x98
    2920:	e3a00018 	mov	r0, #24
    2924:	e1a01003 	mov	r1, r3
    2928:	e3a02000 	mov	r2, #0
    292c:	ebfffc1e 	bl	19ac <_init+0x158>
    2930:	ebfffbf6 	bl	1910 <_init+0xbc>
    2934:	e1a03000 	mov	r3, r0
    2938:	e1a00003 	mov	r0, r3
    293c:	e3a01018 	mov	r1, #24
    2940:	ebfffc79 	bl	1b2c <_init+0x2d8>
    2944:	e24bd008 	sub	sp, fp, #8
    2948:	e8bd8810 	pop	{r4, fp, pc}
    294c:	0000d880 	andeq	sp, r0, r0, lsl #17
    2950:	00000158 	andeq	r0, r0, r8, asr r1
    2954:	00005564 	andeq	r5, r0, r4, ror #10

00002958 <xeno_get_current>:
    2958:	e92d4800 	push	{fp, lr}
    295c:	e28db004 	add	fp, sp, #4
    2960:	e24dd008 	sub	sp, sp, #8
    2964:	e59f203c 	ldr	r2, [pc, #60]	; 29a8 <xeno_get_current+0x50>
    2968:	e08f2002 	add	r2, pc, r2
    296c:	e59f3038 	ldr	r3, [pc, #56]	; 29ac <xeno_get_current+0x54>
    2970:	e7923003 	ldr	r3, [r2, r3]
    2974:	e5933000 	ldr	r3, [r3]
    2978:	e1a00003 	mov	r0, r3
    297c:	ebfffca6 	bl	1c1c <_init+0x3c8>
    2980:	e50b0008 	str	r0, [fp, #-8]
    2984:	e51b3008 	ldr	r3, [fp, #-8]
    2988:	e3530000 	cmp	r3, #0
    298c:	0a000000 	beq	2994 <xeno_get_current+0x3c>
    2990:	ea000001 	b	299c <xeno_get_current+0x44>
    2994:	ebfffc01 	bl	19a0 <_init+0x14c>
    2998:	e1a03000 	mov	r3, r0
    299c:	e1a00003 	mov	r0, r3
    29a0:	e24bd004 	sub	sp, fp, #4
    29a4:	e8bd8800 	pop	{fp, pc}
    29a8:	0000d7c0 	andeq	sp, r0, r0, asr #15
    29ac:	00000174 	andeq	r0, r0, r4, ror r1

000029b0 <__xeno_set_current>:
    29b0:	e92d4800 	push	{fp, lr}
    29b4:	e28db004 	add	fp, sp, #4
    29b8:	e24dd008 	sub	sp, sp, #8
    29bc:	e50b0008 	str	r0, [fp, #-8]
    29c0:	e59f2024 	ldr	r2, [pc, #36]	; 29ec <__xeno_set_current+0x3c>
    29c4:	e08f2002 	add	r2, pc, r2
    29c8:	e59f3020 	ldr	r3, [pc, #32]	; 29f0 <__xeno_set_current+0x40>
    29cc:	e7923003 	ldr	r3, [r2, r3]
    29d0:	e5932000 	ldr	r2, [r3]
    29d4:	e51b3008 	ldr	r3, [fp, #-8]
    29d8:	e1a00002 	mov	r0, r2
    29dc:	e1a01003 	mov	r1, r3
    29e0:	ebfffc5a 	bl	1b50 <_init+0x2fc>
    29e4:	e24bd004 	sub	sp, fp, #4
    29e8:	e8bd8800 	pop	{fp, pc}
    29ec:	0000d764 	andeq	sp, r0, r4, ror #14
    29f0:	00000174 	andeq	r0, r0, r4, ror r1

000029f4 <xeno_current_fork_handler>:
    29f4:	e92d4800 	push	{fp, lr}
    29f8:	e28db004 	add	fp, sp, #4
    29fc:	ebffffd5 	bl	2958 <xeno_get_current>
    2a00:	e1a03000 	mov	r3, r0
    2a04:	e3530000 	cmp	r3, #0
    2a08:	0a000001 	beq	2a14 <xeno_current_fork_handler+0x20>
    2a0c:	e3a00000 	mov	r0, #0
    2a10:	ebffffe6 	bl	29b0 <__xeno_set_current>
    2a14:	e8bd8800 	pop	{fp, pc}

00002a18 <init_current_keys>:
    2a18:	e92d4810 	push	{r4, fp, lr}
    2a1c:	e28db008 	add	fp, sp, #8
    2a20:	e24dd00c 	sub	sp, sp, #12
    2a24:	e59f40a8 	ldr	r4, [pc, #168]	; 2ad4 <init_current_keys+0xbc>
    2a28:	e08f4004 	add	r4, pc, r4
    2a2c:	e59f30a4 	ldr	r3, [pc, #164]	; 2ad8 <init_current_keys+0xc0>
    2a30:	e7943003 	ldr	r3, [r4, r3]
    2a34:	e1a00003 	mov	r0, r3
    2a38:	e3a01000 	mov	r1, #0
    2a3c:	ebfffbc8 	bl	1964 <_init+0x110>
    2a40:	e50b0010 	str	r0, [fp, #-16]
    2a44:	e51b3010 	ldr	r3, [fp, #-16]
    2a48:	e3530000 	cmp	r3, #0
    2a4c:	1a00000f 	bne	2a90 <init_current_keys+0x78>
    2a50:	e3a00000 	mov	r0, #0
    2a54:	e3a01000 	mov	r1, #0
    2a58:	e59f307c 	ldr	r3, [pc, #124]	; 2adc <init_current_keys+0xc4>
    2a5c:	e08f3003 	add	r3, pc, r3
    2a60:	e1a02003 	mov	r2, r3
    2a64:	eb000d6d 	bl	6020 <__pthread_atfork>
    2a68:	e59f3070 	ldr	r3, [pc, #112]	; 2ae0 <init_current_keys+0xc8>
    2a6c:	e7943003 	ldr	r3, [r4, r3]
    2a70:	e1a00003 	mov	r0, r3
    2a74:	e3a01000 	mov	r1, #0
    2a78:	ebfffbb9 	bl	1964 <_init+0x110>
    2a7c:	e50b0010 	str	r0, [fp, #-16]
    2a80:	e51b3010 	ldr	r3, [fp, #-16]
    2a84:	e3530000 	cmp	r3, #0
    2a88:	0a00000f 	beq	2acc <init_current_keys+0xb4>
    2a8c:	ea000000 	b	2a94 <init_current_keys+0x7c>
    2a90:	e1a00000 	nop			; (mov r0, r0)
    2a94:	e59f3048 	ldr	r3, [pc, #72]	; 2ae4 <init_current_keys+0xcc>
    2a98:	e7943003 	ldr	r3, [r4, r3]
    2a9c:	e5934000 	ldr	r4, [r3]
    2aa0:	e51b0010 	ldr	r0, [fp, #-16]
    2aa4:	ebfffbe1 	bl	1a30 <_init+0x1dc>
    2aa8:	e1a03000 	mov	r3, r0
    2aac:	e1a00004 	mov	r0, r4
    2ab0:	e59f2030 	ldr	r2, [pc, #48]	; 2ae8 <init_current_keys+0xd0>
    2ab4:	e08f2002 	add	r2, pc, r2
    2ab8:	e1a01002 	mov	r1, r2
    2abc:	e1a02003 	mov	r2, r3
    2ac0:	ebfffbf2 	bl	1a90 <_init+0x23c>
    2ac4:	e3a00001 	mov	r0, #1
    2ac8:	ebfffbe4 	bl	1a60 <_init+0x20c>
    2acc:	e24bd008 	sub	sp, fp, #8
    2ad0:	e8bd8810 	pop	{r4, fp, pc}
    2ad4:	0000d700 	andeq	sp, r0, r0, lsl #14
    2ad8:	00000174 	andeq	r0, r0, r4, ror r1
    2adc:	ffffff90 			; <UNDEFINED> instruction: 0xffffff90
    2ae0:	00000154 	andeq	r0, r0, r4, asr r1
    2ae4:	00000158 	andeq	r0, r0, r8, asr r1
    2ae8:	000053b8 			; <UNDEFINED> instruction: 0x000053b8

00002aec <xeno_init_current_keys>:
    2aec:	e92d4800 	push	{fp, lr}
    2af0:	e28db004 	add	fp, sp, #4
    2af4:	e59f3018 	ldr	r3, [pc, #24]	; 2b14 <xeno_init_current_keys+0x28>
    2af8:	e08f3003 	add	r3, pc, r3
    2afc:	e1a00003 	mov	r0, r3
    2b00:	e59f3010 	ldr	r3, [pc, #16]	; 2b18 <xeno_init_current_keys+0x2c>
    2b04:	e08f3003 	add	r3, pc, r3
    2b08:	e1a01003 	mov	r1, r3
    2b0c:	ebfffbca 	bl	1a3c <_init+0x1e8>
    2b10:	e8bd8800 	pop	{fp, pc}
    2b14:	0000d800 	andeq	sp, r0, r0, lsl #16
    2b18:	ffffff0c 			; <UNDEFINED> instruction: 0xffffff0c

00002b1c <xeno_set_current_mode>:
    2b1c:	e92d4800 	push	{fp, lr}
    2b20:	e28db004 	add	fp, sp, #4
    2b24:	e24dd008 	sub	sp, sp, #8
    2b28:	e50b0008 	str	r0, [fp, #-8]
    2b2c:	e59f3034 	ldr	r3, [pc, #52]	; 2b68 <xeno_set_current_mode+0x4c>
    2b30:	e08f3003 	add	r3, pc, r3
    2b34:	e59f2030 	ldr	r2, [pc, #48]	; 2b6c <xeno_set_current_mode+0x50>
    2b38:	e7932002 	ldr	r2, [r3, r2]
    2b3c:	e5922000 	ldr	r2, [r2]
    2b40:	e59f1028 	ldr	r1, [pc, #40]	; 2b70 <xeno_set_current_mode+0x54>
    2b44:	e7933001 	ldr	r3, [r3, r1]
    2b48:	e5931000 	ldr	r1, [r3]
    2b4c:	e51b3008 	ldr	r3, [fp, #-8]
    2b50:	e0813003 	add	r3, r1, r3
    2b54:	e1a00002 	mov	r0, r2
    2b58:	e1a01003 	mov	r1, r3
    2b5c:	ebfffbfb 	bl	1b50 <_init+0x2fc>
    2b60:	e24bd004 	sub	sp, fp, #4
    2b64:	e8bd8800 	pop	{fp, pc}
    2b68:	0000d5f8 	strdeq	sp, [r0], -r8
    2b6c:	00000154 	andeq	r0, r0, r4, asr r1
    2b70:	00000178 	andeq	r0, r0, r8, ror r1

00002b74 <xeno_slow_get_current>:
    2b74:	e92d0880 	push	{r7, fp}
    2b78:	e28db004 	add	fp, sp, #4
    2b7c:	e24dd010 	sub	sp, sp, #16
    2b80:	e59f3048 	ldr	r3, [pc, #72]	; 2bd0 <xeno_slow_get_current+0x5c>
    2b84:	e50b3008 	str	r3, [fp, #-8]
    2b88:	e24b3014 	sub	r3, fp, #20
    2b8c:	e50b300c 	str	r3, [fp, #-12]
    2b90:	e51b0008 	ldr	r0, [fp, #-8]
    2b94:	e51b100c 	ldr	r1, [fp, #-12]
    2b98:	e59f7034 	ldr	r7, [pc, #52]	; 2bd4 <xeno_slow_get_current+0x60>
    2b9c:	ef000000 	svc	0x00000000
    2ba0:	e1a03000 	mov	r3, r0
    2ba4:	e50b3010 	str	r3, [fp, #-16]
    2ba8:	e51b3010 	ldr	r3, [fp, #-16]
    2bac:	e3530000 	cmp	r3, #0
    2bb0:	1a000001 	bne	2bbc <xeno_slow_get_current+0x48>
    2bb4:	e51b3014 	ldr	r3, [fp, #-20]
    2bb8:	ea000000 	b	2bc0 <xeno_slow_get_current+0x4c>
    2bbc:	e3a03000 	mov	r3, #0
    2bc0:	e1a00003 	mov	r0, r3
    2bc4:	e24bd004 	sub	sp, fp, #4
    2bc8:	e8bd0880 	pop	{r7, fp}
    2bcc:	e12fff1e 	bx	lr
    2bd0:	0800022b 	stmdaeq	r0, {r0, r1, r3, r5, r9}
    2bd4:	000f0042 	andeq	r0, pc, r2, asr #32

00002bd8 <xeno_set_current>:
    2bd8:	e92d4890 	push	{r4, r7, fp, lr}
    2bdc:	e28db00c 	add	fp, sp, #12
    2be0:	e24dd010 	sub	sp, sp, #16
    2be4:	e59f2088 	ldr	r2, [pc, #136]	; 2c74 <xeno_set_current+0x9c>
    2be8:	e08f2002 	add	r2, pc, r2
    2bec:	e59f3084 	ldr	r3, [pc, #132]	; 2c78 <xeno_set_current+0xa0>
    2bf0:	e50b3010 	str	r3, [fp, #-16]
    2bf4:	e24b301c 	sub	r3, fp, #28
    2bf8:	e50b3014 	str	r3, [fp, #-20]
    2bfc:	e51b0010 	ldr	r0, [fp, #-16]
    2c00:	e51b1014 	ldr	r1, [fp, #-20]
    2c04:	e59f7070 	ldr	r7, [pc, #112]	; 2c7c <xeno_set_current+0xa4>
    2c08:	ef000000 	svc	0x00000000
    2c0c:	e1a03000 	mov	r3, r0
    2c10:	e50b3018 	str	r3, [fp, #-24]
    2c14:	e51b3018 	ldr	r3, [fp, #-24]
    2c18:	e3530000 	cmp	r3, #0
    2c1c:	0a00000f 	beq	2c60 <xeno_set_current+0x88>
    2c20:	e59f3058 	ldr	r3, [pc, #88]	; 2c80 <xeno_set_current+0xa8>
    2c24:	e7923003 	ldr	r3, [r2, r3]
    2c28:	e5934000 	ldr	r4, [r3]
    2c2c:	e51b3018 	ldr	r3, [fp, #-24]
    2c30:	e2633000 	rsb	r3, r3, #0
    2c34:	e1a00003 	mov	r0, r3
    2c38:	ebfffb7c 	bl	1a30 <_init+0x1dc>
    2c3c:	e1a03000 	mov	r3, r0
    2c40:	e1a00004 	mov	r0, r4
    2c44:	e59f2038 	ldr	r2, [pc, #56]	; 2c84 <xeno_set_current+0xac>
    2c48:	e08f2002 	add	r2, pc, r2
    2c4c:	e1a01002 	mov	r1, r2
    2c50:	e1a02003 	mov	r2, r3
    2c54:	ebfffb8d 	bl	1a90 <_init+0x23c>
    2c58:	e3a00001 	mov	r0, #1
    2c5c:	ebfffb7f 	bl	1a60 <_init+0x20c>
    2c60:	e51b301c 	ldr	r3, [fp, #-28]
    2c64:	e1a00003 	mov	r0, r3
    2c68:	ebffff50 	bl	29b0 <__xeno_set_current>
    2c6c:	e24bd00c 	sub	sp, fp, #12
    2c70:	e8bd8890 	pop	{r4, r7, fp, pc}
    2c74:	0000d540 	andeq	sp, r0, r0, asr #10
    2c78:	0800022b 	stmdaeq	r0, {r0, r1, r3, r5, r9}
    2c7c:	000f0042 	andeq	r0, pc, r2, asr #32
    2c80:	00000158 	andeq	r0, r0, r8, asr r1
    2c84:	0000524c 	andeq	r5, r0, ip, asr #4

00002c88 <xnarch_atomic_set>:
    2c88:	e52db004 	push	{fp}		; (str fp, [sp, #-4]!)
    2c8c:	e28db000 	add	fp, sp, #0
    2c90:	e24dd00c 	sub	sp, sp, #12
    2c94:	e50b0008 	str	r0, [fp, #-8]
    2c98:	e50b100c 	str	r1, [fp, #-12]
    2c9c:	e51b3008 	ldr	r3, [fp, #-8]
    2ca0:	e51b200c 	ldr	r2, [fp, #-12]
    2ca4:	e5832000 	str	r2, [r3]
    2ca8:	e28bd000 	add	sp, fp, #0
    2cac:	e8bd0800 	pop	{fp}
    2cb0:	e12fff1e 	bx	lr

00002cb4 <xeno_stacksize>:
    2cb4:	e92d4800 	push	{fp, lr}
    2cb8:	e28db004 	add	fp, sp, #4
    2cbc:	e24dd008 	sub	sp, sp, #8
    2cc0:	e50b0008 	str	r0, [fp, #-8]
    2cc4:	e59f307c 	ldr	r3, [pc, #124]	; 2d48 <xeno_stacksize+0x94>
    2cc8:	e08f3003 	add	r3, pc, r3
    2ccc:	e5933000 	ldr	r3, [r3]
    2cd0:	e3530000 	cmp	r3, #0
    2cd4:	1a000006 	bne	2cf4 <xeno_stacksize+0x40>
    2cd8:	ebfffb6f 	bl	1a9c <_init+0x248>
    2cdc:	e1a03000 	mov	r3, r0
    2ce0:	e2833901 	add	r3, r3, #16384	; 0x4000
    2ce4:	e1a02003 	mov	r2, r3
    2ce8:	e59f305c 	ldr	r3, [pc, #92]	; 2d4c <xeno_stacksize+0x98>
    2cec:	e08f3003 	add	r3, pc, r3
    2cf0:	e5832000 	str	r2, [r3]
    2cf4:	e51b3008 	ldr	r3, [fp, #-8]
    2cf8:	e3530000 	cmp	r3, #0
    2cfc:	1a000003 	bne	2d10 <xeno_stacksize+0x5c>
    2d00:	e59f3048 	ldr	r3, [pc, #72]	; 2d50 <xeno_stacksize+0x9c>
    2d04:	e08f3003 	add	r3, pc, r3
    2d08:	e5933000 	ldr	r3, [r3]
    2d0c:	e50b3008 	str	r3, [fp, #-8]
    2d10:	e59f303c 	ldr	r3, [pc, #60]	; 2d54 <xeno_stacksize+0xa0>
    2d14:	e08f3003 	add	r3, pc, r3
    2d18:	e5933000 	ldr	r3, [r3]
    2d1c:	e51b2008 	ldr	r2, [fp, #-8]
    2d20:	e1520003 	cmp	r2, r3
    2d24:	2a000003 	bcs	2d38 <xeno_stacksize+0x84>
    2d28:	e59f3028 	ldr	r3, [pc, #40]	; 2d58 <xeno_stacksize+0xa4>
    2d2c:	e08f3003 	add	r3, pc, r3
    2d30:	e5933000 	ldr	r3, [r3]
    2d34:	e50b3008 	str	r3, [fp, #-8]
    2d38:	e51b3008 	ldr	r3, [fp, #-8]
    2d3c:	e1a00003 	mov	r0, r3
    2d40:	e24bd004 	sub	sp, fp, #4
    2d44:	e8bd8800 	pop	{fp, pc}
    2d48:	0000d6c0 	andeq	sp, r0, r0, asr #13
    2d4c:	0000d69c 	muleq	r0, ip, r6
    2d50:	00005240 	andeq	r5, r0, r0, asr #4
    2d54:	0000d674 	andeq	sp, r0, r4, ror r6
    2d58:	0000d65c 	andeq	sp, r0, ip, asr r6

00002d5c <vprint_to_buffer>:
    2d5c:	e92d4800 	push	{fp, lr}
    2d60:	e28db004 	add	fp, sp, #4
    2d64:	e24dd030 	sub	sp, sp, #48	; 0x30
    2d68:	e50b0028 	str	r0, [fp, #-40]	; 0x28
    2d6c:	e50b102c 	str	r1, [fp, #-44]	; 0x2c
    2d70:	e50b2030 	str	r2, [fp, #-48]	; 0x30
    2d74:	e50b3034 	str	r3, [fp, #-52]	; 0x34
    2d78:	e59f35bc 	ldr	r3, [pc, #1468]	; 333c <vprint_to_buffer+0x5e0>
    2d7c:	e08f3003 	add	r3, pc, r3
    2d80:	e5933000 	ldr	r3, [r3]
    2d84:	e1a00003 	mov	r0, r3
    2d88:	ebfffba3 	bl	1c1c <_init+0x3c8>
    2d8c:	e50b0008 	str	r0, [fp, #-8]
    2d90:	e3a03000 	mov	r3, #0
    2d94:	e50b3014 	str	r3, [fp, #-20]
    2d98:	e51b3008 	ldr	r3, [fp, #-8]
    2d9c:	e3530000 	cmp	r3, #0
    2da0:	1a00001c 	bne	2e18 <vprint_to_buffer+0xbc>
    2da4:	e3a03000 	mov	r3, #0
    2da8:	e50b3014 	str	r3, [fp, #-20]
    2dac:	e59f358c 	ldr	r3, [pc, #1420]	; 3340 <vprint_to_buffer+0x5e4>
    2db0:	e08f3003 	add	r3, pc, r3
    2db4:	e5933000 	ldr	r3, [r3]
    2db8:	e3530000 	cmp	r3, #0
    2dbc:	0a000004 	beq	2dd4 <vprint_to_buffer+0x78>
    2dc0:	e3a00000 	mov	r0, #0
    2dc4:	e3a01000 	mov	r1, #0
    2dc8:	ebfffb00 	bl	19d0 <_init+0x17c>
    2dcc:	e50b0014 	str	r0, [fp, #-20]
    2dd0:	ea000001 	b	2ddc <vprint_to_buffer+0x80>
    2dd4:	e3a03005 	mov	r3, #5
    2dd8:	e50b3014 	str	r3, [fp, #-20]
    2ddc:	e51b3014 	ldr	r3, [fp, #-20]
    2de0:	e3530000 	cmp	r3, #0
    2de4:	0a000005 	beq	2e00 <vprint_to_buffer+0xa4>
    2de8:	ebfffb34 	bl	1ac0 <_init+0x26c>
    2dec:	e1a03000 	mov	r3, r0
    2df0:	e51b2014 	ldr	r2, [fp, #-20]
    2df4:	e5832000 	str	r2, [r3]
    2df8:	e3e03000 	mvn	r3, #0
    2dfc:	ea00014b 	b	3330 <vprint_to_buffer+0x5d4>
    2e00:	e59f353c 	ldr	r3, [pc, #1340]	; 3344 <vprint_to_buffer+0x5e8>
    2e04:	e08f3003 	add	r3, pc, r3
    2e08:	e5933000 	ldr	r3, [r3]
    2e0c:	e1a00003 	mov	r0, r3
    2e10:	ebfffb81 	bl	1c1c <_init+0x3c8>
    2e14:	e50b0008 	str	r0, [fp, #-8]
    2e18:	e51b3008 	ldr	r3, [fp, #-8]
    2e1c:	e5933000 	ldr	r3, [r3]
    2e20:	e50b300c 	str	r3, [fp, #-12]
    2e24:	e51b3008 	ldr	r3, [fp, #-8]
    2e28:	e5933034 	ldr	r3, [r3, #52]	; 0x34
    2e2c:	e50b3018 	str	r3, [fp, #-24]
    2e30:	eb0010a6 	bl	70d0 <__sync_synchronize>
    2e34:	e51b200c 	ldr	r2, [fp, #-12]
    2e38:	e51b3018 	ldr	r3, [fp, #-24]
    2e3c:	e1520003 	cmp	r2, r3
    2e40:	ba00003e 	blt	2f40 <vprint_to_buffer+0x1e4>
    2e44:	e51b3008 	ldr	r3, [fp, #-8]
    2e48:	e5932010 	ldr	r2, [r3, #16]
    2e4c:	e51b300c 	ldr	r3, [fp, #-12]
    2e50:	e0633002 	rsb	r3, r3, r2
    2e54:	e2433010 	sub	r3, r3, #16
    2e58:	e50b3010 	str	r3, [fp, #-16]
    2e5c:	e51b3010 	ldr	r3, [fp, #-16]
    2e60:	e3530000 	cmp	r3, #0
    2e64:	1a00003a 	bne	2f54 <vprint_to_buffer+0x1f8>
    2e68:	e51b3018 	ldr	r3, [fp, #-24]
    2e6c:	e3530010 	cmp	r3, #16
    2e70:	9a000037 	bls	2f54 <vprint_to_buffer+0x1f8>
    2e74:	e51b3008 	ldr	r3, [fp, #-8]
    2e78:	e593200c 	ldr	r2, [r3, #12]
    2e7c:	e51b300c 	ldr	r3, [fp, #-12]
    2e80:	e0823003 	add	r3, r2, r3
    2e84:	e50b301c 	str	r3, [fp, #-28]
    2e88:	e59f34b8 	ldr	r3, [pc, #1208]	; 3348 <vprint_to_buffer+0x5ec>
    2e8c:	e08f3003 	add	r3, pc, r3
    2e90:	e5932000 	ldr	r2, [r3]
    2e94:	e51b301c 	ldr	r3, [fp, #-28]
    2e98:	e20210ff 	and	r1, r2, #255	; 0xff
    2e9c:	e3a00000 	mov	r0, #0
    2ea0:	e1801001 	orr	r1, r0, r1
    2ea4:	e5c31004 	strb	r1, [r3, #4]
    2ea8:	e1a01422 	lsr	r1, r2, #8
    2eac:	e20110ff 	and	r1, r1, #255	; 0xff
    2eb0:	e3a00000 	mov	r0, #0
    2eb4:	e1801001 	orr	r1, r0, r1
    2eb8:	e5c31005 	strb	r1, [r3, #5]
    2ebc:	e1a01822 	lsr	r1, r2, #16
    2ec0:	e20110ff 	and	r1, r1, #255	; 0xff
    2ec4:	e3a00000 	mov	r0, #0
    2ec8:	e1801001 	orr	r1, r0, r1
    2ecc:	e5c31006 	strb	r1, [r3, #6]
    2ed0:	e1a02c22 	lsr	r2, r2, #24
    2ed4:	e3a01000 	mov	r1, #0
    2ed8:	e1812002 	orr	r2, r1, r2
    2edc:	e5c32007 	strb	r2, [r3, #7]
    2ee0:	e51b301c 	ldr	r3, [fp, #-28]
    2ee4:	e3a02000 	mov	r2, #0
    2ee8:	e5c32008 	strb	r2, [r3, #8]
    2eec:	e3a02000 	mov	r2, #0
    2ef0:	e5c32009 	strb	r2, [r3, #9]
    2ef4:	e3a02000 	mov	r2, #0
    2ef8:	e5c3200a 	strb	r2, [r3, #10]
    2efc:	e3a02000 	mov	r2, #0
    2f00:	e5c3200b 	strb	r2, [r3, #11]
    2f04:	e51b301c 	ldr	r3, [fp, #-28]
    2f08:	e3a02000 	mov	r2, #0
    2f0c:	e5c3200c 	strb	r2, [r3, #12]
    2f10:	e3a02000 	mov	r2, #0
    2f14:	e5c3200d 	strb	r2, [r3, #13]
    2f18:	e3a02000 	mov	r2, #0
    2f1c:	e5c3200e 	strb	r2, [r3, #14]
    2f20:	e3a02000 	mov	r2, #0
    2f24:	e5c3200f 	strb	r2, [r3, #15]
    2f28:	e3a03000 	mov	r3, #0
    2f2c:	e50b300c 	str	r3, [fp, #-12]
    2f30:	e51b3018 	ldr	r3, [fp, #-24]
    2f34:	e2433001 	sub	r3, r3, #1
    2f38:	e50b3010 	str	r3, [fp, #-16]
    2f3c:	ea000004 	b	2f54 <vprint_to_buffer+0x1f8>
    2f40:	e51b2018 	ldr	r2, [fp, #-24]
    2f44:	e51b300c 	ldr	r3, [fp, #-12]
    2f48:	e0633002 	rsb	r3, r3, r2
    2f4c:	e2433001 	sub	r3, r3, #1
    2f50:	e50b3010 	str	r3, [fp, #-16]
    2f54:	e51b3010 	ldr	r3, [fp, #-16]
    2f58:	e2433010 	sub	r3, r3, #16
    2f5c:	e50b3010 	str	r3, [fp, #-16]
    2f60:	e51b3010 	ldr	r3, [fp, #-16]
    2f64:	e3530000 	cmp	r3, #0
    2f68:	aa000001 	bge	2f74 <vprint_to_buffer+0x218>
    2f6c:	e3a03000 	mov	r3, #0
    2f70:	e50b3010 	str	r3, [fp, #-16]
    2f74:	e51b3008 	ldr	r3, [fp, #-8]
    2f78:	e593200c 	ldr	r2, [r3, #12]
    2f7c:	e51b300c 	ldr	r3, [fp, #-12]
    2f80:	e0823003 	add	r3, r2, r3
    2f84:	e50b301c 	str	r3, [fp, #-28]
    2f88:	e51b3030 	ldr	r3, [fp, #-48]	; 0x30
    2f8c:	e3530000 	cmp	r3, #0
    2f90:	1a000029 	bne	303c <vprint_to_buffer+0x2e0>
    2f94:	e51b3028 	ldr	r3, [fp, #-40]	; 0x28
    2f98:	e3530000 	cmp	r3, #0
    2f9c:	0a000012 	beq	2fec <vprint_to_buffer+0x290>
    2fa0:	e51b301c 	ldr	r3, [fp, #-28]
    2fa4:	e2832010 	add	r2, r3, #16
    2fa8:	e51b3010 	ldr	r3, [fp, #-16]
    2fac:	e1a00002 	mov	r0, r2
    2fb0:	e1a01003 	mov	r1, r3
    2fb4:	e59b2004 	ldr	r2, [fp, #4]
    2fb8:	e59b3008 	ldr	r3, [fp, #8]
    2fbc:	ebfffb01 	bl	1bc8 <_init+0x374>
    2fc0:	e50b0014 	str	r0, [fp, #-20]
    2fc4:	e51b2014 	ldr	r2, [fp, #-20]
    2fc8:	e51b3010 	ldr	r3, [fp, #-16]
    2fcc:	e1520003 	cmp	r2, r3
    2fd0:	aa000002 	bge	2fe0 <vprint_to_buffer+0x284>
    2fd4:	e51b3014 	ldr	r3, [fp, #-20]
    2fd8:	e50b3010 	str	r3, [fp, #-16]
    2fdc:	ea00002b 	b	3090 <vprint_to_buffer+0x334>
    2fe0:	e51b3010 	ldr	r3, [fp, #-16]
    2fe4:	e50b3014 	str	r3, [fp, #-20]
    2fe8:	ea000028 	b	3090 <vprint_to_buffer+0x334>
    2fec:	e51b301c 	ldr	r3, [fp, #-28]
    2ff0:	e2832010 	add	r2, r3, #16
    2ff4:	e51b3010 	ldr	r3, [fp, #-16]
    2ff8:	e1a00002 	mov	r0, r2
    2ffc:	e1a01003 	mov	r1, r3
    3000:	e59b2004 	ldr	r2, [fp, #4]
    3004:	e59b3008 	ldr	r3, [fp, #8]
    3008:	ebfffaee 	bl	1bc8 <_init+0x374>
    300c:	e50b0014 	str	r0, [fp, #-20]
    3010:	e51b2014 	ldr	r2, [fp, #-20]
    3014:	e51b3010 	ldr	r3, [fp, #-16]
    3018:	e1520003 	cmp	r2, r3
    301c:	aa000003 	bge	3030 <vprint_to_buffer+0x2d4>
    3020:	e51b3014 	ldr	r3, [fp, #-20]
    3024:	e2833001 	add	r3, r3, #1
    3028:	e50b3010 	str	r3, [fp, #-16]
    302c:	ea000017 	b	3090 <vprint_to_buffer+0x334>
    3030:	e51b3010 	ldr	r3, [fp, #-16]
    3034:	e50b3014 	str	r3, [fp, #-20]
    3038:	ea000014 	b	3090 <vprint_to_buffer+0x334>
    303c:	e51b3010 	ldr	r3, [fp, #-16]
    3040:	e3530000 	cmp	r3, #0
    3044:	da00000f 	ble	3088 <vprint_to_buffer+0x32c>
    3048:	e51b3034 	ldr	r3, [fp, #-52]	; 0x34
    304c:	e50b3020 	str	r3, [fp, #-32]
    3050:	e51b2010 	ldr	r2, [fp, #-16]
    3054:	e51b3020 	ldr	r3, [fp, #-32]
    3058:	e1520003 	cmp	r2, r3
    305c:	b1a03002 	movlt	r3, r2
    3060:	a1a03003 	movge	r3, r3
    3064:	e50b3010 	str	r3, [fp, #-16]
    3068:	e51b301c 	ldr	r3, [fp, #-28]
    306c:	e2832010 	add	r2, r3, #16
    3070:	e51b3010 	ldr	r3, [fp, #-16]
    3074:	e1a00002 	mov	r0, r2
    3078:	e59b1004 	ldr	r1, [fp, #4]
    307c:	e1a02003 	mov	r2, r3
    3080:	ebfffa25 	bl	191c <_init+0xc8>
    3084:	ea000001 	b	3090 <vprint_to_buffer+0x334>
    3088:	e3a03000 	mov	r3, #0
    308c:	e50b3010 	str	r3, [fp, #-16]
    3090:	e51b3010 	ldr	r3, [fp, #-16]
    3094:	e3530000 	cmp	r3, #0
    3098:	da000057 	ble	31fc <vprint_to_buffer+0x4a0>
    309c:	e59f32a8 	ldr	r3, [pc, #680]	; 334c <vprint_to_buffer+0x5f0>
    30a0:	e08f3003 	add	r3, pc, r3
    30a4:	e5933000 	ldr	r3, [r3]
    30a8:	e2832001 	add	r2, r3, #1
    30ac:	e59f329c 	ldr	r3, [pc, #668]	; 3350 <vprint_to_buffer+0x5f4>
    30b0:	e08f3003 	add	r3, pc, r3
    30b4:	e5832000 	str	r2, [r3]
    30b8:	e59f3294 	ldr	r3, [pc, #660]	; 3354 <vprint_to_buffer+0x5f8>
    30bc:	e08f3003 	add	r3, pc, r3
    30c0:	e5932000 	ldr	r2, [r3]
    30c4:	e51b301c 	ldr	r3, [fp, #-28]
    30c8:	e20210ff 	and	r1, r2, #255	; 0xff
    30cc:	e3a00000 	mov	r0, #0
    30d0:	e1801001 	orr	r1, r0, r1
    30d4:	e5c31004 	strb	r1, [r3, #4]
    30d8:	e1a01422 	lsr	r1, r2, #8
    30dc:	e20110ff 	and	r1, r1, #255	; 0xff
    30e0:	e3a00000 	mov	r0, #0
    30e4:	e1801001 	orr	r1, r0, r1
    30e8:	e5c31005 	strb	r1, [r3, #5]
    30ec:	e1a01822 	lsr	r1, r2, #16
    30f0:	e20110ff 	and	r1, r1, #255	; 0xff
    30f4:	e3a00000 	mov	r0, #0
    30f8:	e1801001 	orr	r1, r0, r1
    30fc:	e5c31006 	strb	r1, [r3, #6]
    3100:	e1a02c22 	lsr	r2, r2, #24
    3104:	e3a01000 	mov	r1, #0
    3108:	e1812002 	orr	r2, r1, r2
    310c:	e5c32007 	strb	r2, [r3, #7]
    3110:	e51b301c 	ldr	r3, [fp, #-28]
    3114:	e55b202c 	ldrb	r2, [fp, #-44]	; 0x2c
    3118:	e3a01000 	mov	r1, #0
    311c:	e1812002 	orr	r2, r1, r2
    3120:	e5c32008 	strb	r2, [r3, #8]
    3124:	e55b202b 	ldrb	r2, [fp, #-43]	; 0x2b
    3128:	e3a01000 	mov	r1, #0
    312c:	e1812002 	orr	r2, r1, r2
    3130:	e5c32009 	strb	r2, [r3, #9]
    3134:	e55b202a 	ldrb	r2, [fp, #-42]	; 0x2a
    3138:	e3a01000 	mov	r1, #0
    313c:	e1812002 	orr	r2, r1, r2
    3140:	e5c3200a 	strb	r2, [r3, #10]
    3144:	e55b2029 	ldrb	r2, [fp, #-41]	; 0x29
    3148:	e3a01000 	mov	r1, #0
    314c:	e1812002 	orr	r2, r1, r2
    3150:	e5c3200b 	strb	r2, [r3, #11]
    3154:	e51b301c 	ldr	r3, [fp, #-28]
    3158:	e55b2028 	ldrb	r2, [fp, #-40]	; 0x28
    315c:	e3a01000 	mov	r1, #0
    3160:	e1812002 	orr	r2, r1, r2
    3164:	e5c32000 	strb	r2, [r3]
    3168:	e55b2027 	ldrb	r2, [fp, #-39]	; 0x27
    316c:	e3a01000 	mov	r1, #0
    3170:	e1812002 	orr	r2, r1, r2
    3174:	e5c32001 	strb	r2, [r3, #1]
    3178:	e55b2026 	ldrb	r2, [fp, #-38]	; 0x26
    317c:	e3a01000 	mov	r1, #0
    3180:	e1812002 	orr	r2, r1, r2
    3184:	e5c32002 	strb	r2, [r3, #2]
    3188:	e55b2025 	ldrb	r2, [fp, #-37]	; 0x25
    318c:	e3a01000 	mov	r1, #0
    3190:	e1812002 	orr	r2, r1, r2
    3194:	e5c32003 	strb	r2, [r3, #3]
    3198:	e51b2010 	ldr	r2, [fp, #-16]
    319c:	e51b301c 	ldr	r3, [fp, #-28]
    31a0:	e20210ff 	and	r1, r2, #255	; 0xff
    31a4:	e3a00000 	mov	r0, #0
    31a8:	e1801001 	orr	r1, r0, r1
    31ac:	e5c3100c 	strb	r1, [r3, #12]
    31b0:	e1a01422 	lsr	r1, r2, #8
    31b4:	e20110ff 	and	r1, r1, #255	; 0xff
    31b8:	e3a00000 	mov	r0, #0
    31bc:	e1801001 	orr	r1, r0, r1
    31c0:	e5c3100d 	strb	r1, [r3, #13]
    31c4:	e1a01822 	lsr	r1, r2, #16
    31c8:	e20110ff 	and	r1, r1, #255	; 0xff
    31cc:	e3a00000 	mov	r0, #0
    31d0:	e1801001 	orr	r1, r0, r1
    31d4:	e5c3100e 	strb	r1, [r3, #14]
    31d8:	e1a02c22 	lsr	r2, r2, #24
    31dc:	e3a01000 	mov	r1, #0
    31e0:	e1812002 	orr	r2, r1, r2
    31e4:	e5c3200f 	strb	r2, [r3, #15]
    31e8:	e51b2010 	ldr	r2, [fp, #-16]
    31ec:	e51b300c 	ldr	r3, [fp, #-12]
    31f0:	e0823003 	add	r3, r2, r3
    31f4:	e2833010 	add	r3, r3, #16
    31f8:	e50b300c 	str	r3, [fp, #-12]
    31fc:	e51b200c 	ldr	r2, [fp, #-12]
    3200:	e51b3008 	ldr	r3, [fp, #-8]
    3204:	e5933010 	ldr	r3, [r3, #16]
    3208:	e2433c01 	sub	r3, r3, #256	; 0x100
    320c:	e1520003 	cmp	r2, r3
    3210:	3a000041 	bcc	331c <vprint_to_buffer+0x5c0>
    3214:	e51b2018 	ldr	r2, [fp, #-24]
    3218:	e51b300c 	ldr	r3, [fp, #-12]
    321c:	e1520003 	cmp	r2, r3
    3220:	ca00003d 	bgt	331c <vprint_to_buffer+0x5c0>
    3224:	e51b2018 	ldr	r2, [fp, #-24]
    3228:	e51b3008 	ldr	r3, [fp, #-8]
    322c:	e5931010 	ldr	r1, [r3, #16]
    3230:	e51b300c 	ldr	r3, [fp, #-12]
    3234:	e0633001 	rsb	r3, r3, r1
    3238:	e1520003 	cmp	r2, r3
    323c:	9a000036 	bls	331c <vprint_to_buffer+0x5c0>
    3240:	e51b3008 	ldr	r3, [fp, #-8]
    3244:	e593200c 	ldr	r2, [r3, #12]
    3248:	e51b300c 	ldr	r3, [fp, #-12]
    324c:	e0823003 	add	r3, r2, r3
    3250:	e50b301c 	str	r3, [fp, #-28]
    3254:	e59f30fc 	ldr	r3, [pc, #252]	; 3358 <vprint_to_buffer+0x5fc>
    3258:	e08f3003 	add	r3, pc, r3
    325c:	e5932000 	ldr	r2, [r3]
    3260:	e51b301c 	ldr	r3, [fp, #-28]
    3264:	e20210ff 	and	r1, r2, #255	; 0xff
    3268:	e3a00000 	mov	r0, #0
    326c:	e1801001 	orr	r1, r0, r1
    3270:	e5c31004 	strb	r1, [r3, #4]
    3274:	e1a01422 	lsr	r1, r2, #8
    3278:	e20110ff 	and	r1, r1, #255	; 0xff
    327c:	e3a00000 	mov	r0, #0
    3280:	e1801001 	orr	r1, r0, r1
    3284:	e5c31005 	strb	r1, [r3, #5]
    3288:	e1a01822 	lsr	r1, r2, #16
    328c:	e20110ff 	and	r1, r1, #255	; 0xff
    3290:	e3a00000 	mov	r0, #0
    3294:	e1801001 	orr	r1, r0, r1
    3298:	e5c31006 	strb	r1, [r3, #6]
    329c:	e1a02c22 	lsr	r2, r2, #24
    32a0:	e3a01000 	mov	r1, #0
    32a4:	e1812002 	orr	r2, r1, r2
    32a8:	e5c32007 	strb	r2, [r3, #7]
    32ac:	e51b301c 	ldr	r3, [fp, #-28]
    32b0:	e55b202c 	ldrb	r2, [fp, #-44]	; 0x2c
    32b4:	e3a01000 	mov	r1, #0
    32b8:	e1812002 	orr	r2, r1, r2
    32bc:	e5c32008 	strb	r2, [r3, #8]
    32c0:	e55b202b 	ldrb	r2, [fp, #-43]	; 0x2b
    32c4:	e3a01000 	mov	r1, #0
    32c8:	e1812002 	orr	r2, r1, r2
    32cc:	e5c32009 	strb	r2, [r3, #9]
    32d0:	e55b202a 	ldrb	r2, [fp, #-42]	; 0x2a
    32d4:	e3a01000 	mov	r1, #0
    32d8:	e1812002 	orr	r2, r1, r2
    32dc:	e5c3200a 	strb	r2, [r3, #10]
    32e0:	e55b2029 	ldrb	r2, [fp, #-41]	; 0x29
    32e4:	e3a01000 	mov	r1, #0
    32e8:	e1812002 	orr	r2, r1, r2
    32ec:	e5c3200b 	strb	r2, [r3, #11]
    32f0:	e51b301c 	ldr	r3, [fp, #-28]
    32f4:	e3a02000 	mov	r2, #0
    32f8:	e5c3200c 	strb	r2, [r3, #12]
    32fc:	e3a02000 	mov	r2, #0
    3300:	e5c3200d 	strb	r2, [r3, #13]
    3304:	e3a02000 	mov	r2, #0
    3308:	e5c3200e 	strb	r2, [r3, #14]
    330c:	e3a02000 	mov	r2, #0
    3310:	e5c3200f 	strb	r2, [r3, #15]
    3314:	e3a03000 	mov	r3, #0
    3318:	e50b300c 	str	r3, [fp, #-12]
    331c:	eb000f6b 	bl	70d0 <__sync_synchronize>
    3320:	e51b3008 	ldr	r3, [fp, #-8]
    3324:	e51b200c 	ldr	r2, [fp, #-12]
    3328:	e5832000 	str	r2, [r3]
    332c:	e51b3014 	ldr	r3, [fp, #-20]
    3330:	e1a00003 	mov	r0, r3
    3334:	e24bd004 	sub	sp, fp, #4
    3338:	e8bd8800 	pop	{fp, pc}
    333c:	0000d5ec 	andeq	sp, r0, ip, ror #11
    3340:	0000d568 	andeq	sp, r0, r8, ror #10
    3344:	0000d564 	andeq	sp, r0, r4, ror #10
    3348:	0000d47c 	andeq	sp, r0, ip, ror r4
    334c:	0000d268 	andeq	sp, r0, r8, ror #4
    3350:	0000d258 	andeq	sp, r0, r8, asr r2
    3354:	0000d24c 	andeq	sp, r0, ip, asr #4
    3358:	0000d0b0 	strheq	sp, [r0], -r0

0000335c <print_to_buffer>:
    335c:	e92d4800 	push	{fp, lr}
    3360:	e28db004 	add	fp, sp, #4
    3364:	e24dd020 	sub	sp, sp, #32
    3368:	e50b0010 	str	r0, [fp, #-16]
    336c:	e50b1014 	str	r1, [fp, #-20]
    3370:	e50b2018 	str	r2, [fp, #-24]
    3374:	e50b301c 	str	r3, [fp, #-28]
    3378:	e28b3008 	add	r3, fp, #8
    337c:	e50b300c 	str	r3, [fp, #-12]
    3380:	e59b3004 	ldr	r3, [fp, #4]
    3384:	e58d3000 	str	r3, [sp]
    3388:	e51b300c 	ldr	r3, [fp, #-12]
    338c:	e58d3004 	str	r3, [sp, #4]
    3390:	e51b0010 	ldr	r0, [fp, #-16]
    3394:	e51b1014 	ldr	r1, [fp, #-20]
    3398:	e51b2018 	ldr	r2, [fp, #-24]
    339c:	e51b301c 	ldr	r3, [fp, #-28]
    33a0:	ebfffe6d 	bl	2d5c <vprint_to_buffer>
    33a4:	e50b0008 	str	r0, [fp, #-8]
    33a8:	e51b3008 	ldr	r3, [fp, #-8]
    33ac:	e1a00003 	mov	r0, r3
    33b0:	e24bd004 	sub	sp, fp, #4
    33b4:	e8bd8800 	pop	{fp, pc}

000033b8 <rt_vfprintf>:
    33b8:	e92d4800 	push	{fp, lr}
    33bc:	e28db004 	add	fp, sp, #4
    33c0:	e24dd018 	sub	sp, sp, #24
    33c4:	e50b0008 	str	r0, [fp, #-8]
    33c8:	e50b100c 	str	r1, [fp, #-12]
    33cc:	e50b2010 	str	r2, [fp, #-16]
    33d0:	e51b300c 	ldr	r3, [fp, #-12]
    33d4:	e58d3000 	str	r3, [sp]
    33d8:	e51b3010 	ldr	r3, [fp, #-16]
    33dc:	e58d3004 	str	r3, [sp, #4]
    33e0:	e51b0008 	ldr	r0, [fp, #-8]
    33e4:	e3a01000 	mov	r1, #0
    33e8:	e3a02000 	mov	r2, #0
    33ec:	e3a03000 	mov	r3, #0
    33f0:	ebfffe59 	bl	2d5c <vprint_to_buffer>
    33f4:	e1a03000 	mov	r3, r0
    33f8:	e1a00003 	mov	r0, r3
    33fc:	e24bd004 	sub	sp, fp, #4
    3400:	e8bd8800 	pop	{fp, pc}

00003404 <rt_vprintf>:
    3404:	e92d4800 	push	{fp, lr}
    3408:	e28db004 	add	fp, sp, #4
    340c:	e24dd008 	sub	sp, sp, #8
    3410:	e50b0008 	str	r0, [fp, #-8]
    3414:	e50b100c 	str	r1, [fp, #-12]
    3418:	e59f202c 	ldr	r2, [pc, #44]	; 344c <rt_vprintf+0x48>
    341c:	e08f2002 	add	r2, pc, r2
    3420:	e59f3028 	ldr	r3, [pc, #40]	; 3450 <rt_vprintf+0x4c>
    3424:	e7923003 	ldr	r3, [r2, r3]
    3428:	e5933000 	ldr	r3, [r3]
    342c:	e1a00003 	mov	r0, r3
    3430:	e51b1008 	ldr	r1, [fp, #-8]
    3434:	e51b200c 	ldr	r2, [fp, #-12]
    3438:	ebfff91c 	bl	18b0 <_init+0x5c>
    343c:	e1a03000 	mov	r3, r0
    3440:	e1a00003 	mov	r0, r3
    3444:	e24bd004 	sub	sp, fp, #4
    3448:	e8bd8800 	pop	{fp, pc}
    344c:	0000cd0c 	andeq	ip, r0, ip, lsl #26
    3450:	00000170 	andeq	r0, r0, r0, ror r1

00003454 <rt_fprintf>:
    3454:	e92d000e 	push	{r1, r2, r3}
    3458:	e92d4800 	push	{fp, lr}
    345c:	e28db004 	add	fp, sp, #4
    3460:	e24dd014 	sub	sp, sp, #20
    3464:	e50b0014 	str	r0, [fp, #-20]
    3468:	e28b3008 	add	r3, fp, #8
    346c:	e50b3010 	str	r3, [fp, #-16]
    3470:	e51b0014 	ldr	r0, [fp, #-20]
    3474:	e59b1004 	ldr	r1, [fp, #4]
    3478:	e51b2010 	ldr	r2, [fp, #-16]
    347c:	ebfff90b 	bl	18b0 <_init+0x5c>
    3480:	e50b000c 	str	r0, [fp, #-12]
    3484:	e51b300c 	ldr	r3, [fp, #-12]
    3488:	e1a00003 	mov	r0, r3
    348c:	e24bd004 	sub	sp, fp, #4
    3490:	e8bd4800 	pop	{fp, lr}
    3494:	e28dd00c 	add	sp, sp, #12
    3498:	e12fff1e 	bx	lr

0000349c <rt_printf>:
    349c:	e92d000f 	push	{r0, r1, r2, r3}
    34a0:	e92d4800 	push	{fp, lr}
    34a4:	e28db004 	add	fp, sp, #4
    34a8:	e24dd008 	sub	sp, sp, #8
    34ac:	e59f2040 	ldr	r2, [pc, #64]	; 34f4 <rt_printf+0x58>
    34b0:	e08f2002 	add	r2, pc, r2
    34b4:	e28b3008 	add	r3, fp, #8
    34b8:	e50b300c 	str	r3, [fp, #-12]
    34bc:	e59f3034 	ldr	r3, [pc, #52]	; 34f8 <rt_printf+0x5c>
    34c0:	e7923003 	ldr	r3, [r2, r3]
    34c4:	e5933000 	ldr	r3, [r3]
    34c8:	e1a00003 	mov	r0, r3
    34cc:	e59b1004 	ldr	r1, [fp, #4]
    34d0:	e51b200c 	ldr	r2, [fp, #-12]
    34d4:	ebfff8f5 	bl	18b0 <_init+0x5c>
    34d8:	e50b0008 	str	r0, [fp, #-8]
    34dc:	e51b3008 	ldr	r3, [fp, #-8]
    34e0:	e1a00003 	mov	r0, r3
    34e4:	e24bd004 	sub	sp, fp, #4
    34e8:	e8bd4800 	pop	{fp, lr}
    34ec:	e28dd010 	add	sp, sp, #16
    34f0:	e12fff1e 	bx	lr
    34f4:	0000cc78 	andeq	ip, r0, r8, ror ip
    34f8:	00000170 	andeq	r0, r0, r0, ror r1

000034fc <rt_fputs>:
    34fc:	e92d4800 	push	{fp, lr}
    3500:	e28db004 	add	fp, sp, #4
    3504:	e24dd010 	sub	sp, sp, #16
    3508:	e50b0008 	str	r0, [fp, #-8]
    350c:	e50b100c 	str	r1, [fp, #-12]
    3510:	e51b0008 	ldr	r0, [fp, #-8]
    3514:	ebfff957 	bl	1a78 <_init+0x224>
    3518:	e1a03000 	mov	r3, r0
    351c:	e51b2008 	ldr	r2, [fp, #-8]
    3520:	e58d2000 	str	r2, [sp]
    3524:	e51b000c 	ldr	r0, [fp, #-12]
    3528:	e3a01000 	mov	r1, #0
    352c:	e3a02001 	mov	r2, #1
    3530:	ebffff89 	bl	335c <print_to_buffer>
    3534:	e1a03000 	mov	r3, r0
    3538:	e1a00003 	mov	r0, r3
    353c:	e24bd004 	sub	sp, fp, #4
    3540:	e8bd8800 	pop	{fp, pc}

00003544 <rt_puts>:
    3544:	e92d4810 	push	{r4, fp, lr}
    3548:	e28db008 	add	fp, sp, #8
    354c:	e24dd01c 	sub	sp, sp, #28
    3550:	e50b0018 	str	r0, [fp, #-24]
    3554:	e59f406c 	ldr	r4, [pc, #108]	; 35c8 <rt_puts+0x84>
    3558:	e08f4004 	add	r4, pc, r4
    355c:	e59f3068 	ldr	r3, [pc, #104]	; 35cc <rt_puts+0x88>
    3560:	e7943003 	ldr	r3, [r4, r3]
    3564:	e5933000 	ldr	r3, [r3]
    3568:	e51b0018 	ldr	r0, [fp, #-24]
    356c:	e1a01003 	mov	r1, r3
    3570:	ebfff982 	bl	1b80 <_init+0x32c>
    3574:	e50b0010 	str	r0, [fp, #-16]
    3578:	e51b3010 	ldr	r3, [fp, #-16]
    357c:	e3530000 	cmp	r3, #0
    3580:	aa000001 	bge	358c <rt_puts+0x48>
    3584:	e51b3010 	ldr	r3, [fp, #-16]
    3588:	ea00000b 	b	35bc <rt_puts+0x78>
    358c:	e59f3038 	ldr	r3, [pc, #56]	; 35cc <rt_puts+0x88>
    3590:	e7943003 	ldr	r3, [r4, r3]
    3594:	e5933000 	ldr	r3, [r3]
    3598:	e59f2030 	ldr	r2, [pc, #48]	; 35d0 <rt_puts+0x8c>
    359c:	e08f2002 	add	r2, pc, r2
    35a0:	e58d2000 	str	r2, [sp]
    35a4:	e1a00003 	mov	r0, r3
    35a8:	e3a01000 	mov	r1, #0
    35ac:	e3a02001 	mov	r2, #1
    35b0:	e3a03001 	mov	r3, #1
    35b4:	ebffff68 	bl	335c <print_to_buffer>
    35b8:	e1a03000 	mov	r3, r0
    35bc:	e1a00003 	mov	r0, r3
    35c0:	e24bd008 	sub	sp, fp, #8
    35c4:	e8bd8810 	pop	{r4, fp, pc}
    35c8:	0000cbd0 	ldrdeq	ip, [r0], -r0
    35cc:	00000170 	andeq	r0, r0, r0, ror r1
    35d0:	00004930 	andeq	r4, r0, r0, lsr r9

000035d4 <rt_fputc>:
    35d4:	e92d4800 	push	{fp, lr}
    35d8:	e28db004 	add	fp, sp, #4
    35dc:	e24dd018 	sub	sp, sp, #24
    35e0:	e50b0010 	str	r0, [fp, #-16]
    35e4:	e50b1014 	str	r1, [fp, #-20]
    35e8:	e51b3010 	ldr	r3, [fp, #-16]
    35ec:	e20330ff 	and	r3, r3, #255	; 0xff
    35f0:	e54b3009 	strb	r3, [fp, #-9]
    35f4:	e24b3009 	sub	r3, fp, #9
    35f8:	e58d3000 	str	r3, [sp]
    35fc:	e51b0014 	ldr	r0, [fp, #-20]
    3600:	e3a01000 	mov	r1, #0
    3604:	e3a02001 	mov	r2, #1
    3608:	e3a03001 	mov	r3, #1
    360c:	ebffff52 	bl	335c <print_to_buffer>
    3610:	e50b0008 	str	r0, [fp, #-8]
    3614:	e51b3008 	ldr	r3, [fp, #-8]
    3618:	e3530000 	cmp	r3, #0
    361c:	aa000001 	bge	3628 <rt_fputc+0x54>
    3620:	e3e03000 	mvn	r3, #0
    3624:	ea000000 	b	362c <rt_fputc+0x58>
    3628:	e55b3009 	ldrb	r3, [fp, #-9]
    362c:	e1a00003 	mov	r0, r3
    3630:	e24bd004 	sub	sp, fp, #4
    3634:	e8bd8800 	pop	{fp, pc}

00003638 <rt_putchar>:
    3638:	e92d4800 	push	{fp, lr}
    363c:	e28db004 	add	fp, sp, #4
    3640:	e24dd008 	sub	sp, sp, #8
    3644:	e50b0008 	str	r0, [fp, #-8]
    3648:	e59f2028 	ldr	r2, [pc, #40]	; 3678 <rt_putchar+0x40>
    364c:	e08f2002 	add	r2, pc, r2
    3650:	e59f3024 	ldr	r3, [pc, #36]	; 367c <rt_putchar+0x44>
    3654:	e7923003 	ldr	r3, [r2, r3]
    3658:	e5933000 	ldr	r3, [r3]
    365c:	e51b0008 	ldr	r0, [fp, #-8]
    3660:	e1a01003 	mov	r1, r3
    3664:	ebfff942 	bl	1b74 <_init+0x320>
    3668:	e1a03000 	mov	r3, r0
    366c:	e1a00003 	mov	r0, r3
    3670:	e24bd004 	sub	sp, fp, #4
    3674:	e8bd8800 	pop	{fp, pc}
    3678:	0000cadc 	ldrdeq	ip, [r0], -ip	; <UNPREDICTABLE>
    367c:	00000170 	andeq	r0, r0, r0, ror r1

00003680 <rt_fwrite>:
    3680:	e92d4800 	push	{fp, lr}
    3684:	e28db004 	add	fp, sp, #4
    3688:	e24dd018 	sub	sp, sp, #24
    368c:	e50b0008 	str	r0, [fp, #-8]
    3690:	e50b100c 	str	r1, [fp, #-12]
    3694:	e50b2010 	str	r2, [fp, #-16]
    3698:	e50b3014 	str	r3, [fp, #-20]
    369c:	e51b300c 	ldr	r3, [fp, #-12]
    36a0:	e51b2010 	ldr	r2, [fp, #-16]
    36a4:	e0030392 	mul	r3, r2, r3
    36a8:	e51b2008 	ldr	r2, [fp, #-8]
    36ac:	e58d2000 	str	r2, [sp]
    36b0:	e51b0014 	ldr	r0, [fp, #-20]
    36b4:	e3a01000 	mov	r1, #0
    36b8:	e3a02001 	mov	r2, #1
    36bc:	ebffff26 	bl	335c <print_to_buffer>
    36c0:	e51b3010 	ldr	r3, [fp, #-16]
    36c4:	e1a00003 	mov	r0, r3
    36c8:	e24bd004 	sub	sp, fp, #4
    36cc:	e8bd8800 	pop	{fp, pc}

000036d0 <rt_syslog>:
    36d0:	e92d000e 	push	{r1, r2, r3}
    36d4:	e92d4800 	push	{fp, lr}
    36d8:	e28db004 	add	fp, sp, #4
    36dc:	e24dd01c 	sub	sp, sp, #28
    36e0:	e50b0014 	str	r0, [fp, #-20]
    36e4:	e28b3008 	add	r3, fp, #8
    36e8:	e50b300c 	str	r3, [fp, #-12]
    36ec:	e59b3004 	ldr	r3, [fp, #4]
    36f0:	e58d3000 	str	r3, [sp]
    36f4:	e51b300c 	ldr	r3, [fp, #-12]
    36f8:	e58d3004 	str	r3, [sp, #4]
    36fc:	e3a00000 	mov	r0, #0
    3700:	e51b1014 	ldr	r1, [fp, #-20]
    3704:	e3a02000 	mov	r2, #0
    3708:	e3a03000 	mov	r3, #0
    370c:	ebfffd92 	bl	2d5c <vprint_to_buffer>
    3710:	e24bd004 	sub	sp, fp, #4
    3714:	e8bd4800 	pop	{fp, lr}
    3718:	e28dd00c 	add	sp, sp, #12
    371c:	e12fff1e 	bx	lr

00003720 <rt_vsyslog>:
    3720:	e92d4800 	push	{fp, lr}
    3724:	e28db004 	add	fp, sp, #4
    3728:	e24dd018 	sub	sp, sp, #24
    372c:	e50b0008 	str	r0, [fp, #-8]
    3730:	e50b100c 	str	r1, [fp, #-12]
    3734:	e50b2010 	str	r2, [fp, #-16]
    3738:	e51b300c 	ldr	r3, [fp, #-12]
    373c:	e58d3000 	str	r3, [sp]
    3740:	e51b3010 	ldr	r3, [fp, #-16]
    3744:	e58d3004 	str	r3, [sp, #4]
    3748:	e3a00000 	mov	r0, #0
    374c:	e51b1008 	ldr	r1, [fp, #-8]
    3750:	e3a02000 	mov	r2, #0
    3754:	e3a03000 	mov	r3, #0
    3758:	ebfffd7f 	bl	2d5c <vprint_to_buffer>
    375c:	e24bd004 	sub	sp, fp, #4
    3760:	e8bd8800 	pop	{fp, pc}

00003764 <set_buffer_name>:
    3764:	e92d4810 	push	{r4, fp, lr}
    3768:	e28db008 	add	fp, sp, #8
    376c:	e24dd014 	sub	sp, sp, #20
    3770:	e50b0018 	str	r0, [fp, #-24]
    3774:	e50b101c 	str	r1, [fp, #-28]
    3778:	e51b3018 	ldr	r3, [fp, #-24]
    377c:	e2834014 	add	r4, r3, #20
    3780:	ebfff862 	bl	1910 <_init+0xbc>
    3784:	e1a03000 	mov	r3, r0
    3788:	e1a00004 	mov	r0, r4
    378c:	e59f2084 	ldr	r2, [pc, #132]	; 3818 <set_buffer_name+0xb4>
    3790:	e08f2002 	add	r2, pc, r2
    3794:	e1a01002 	mov	r1, r2
    3798:	e1a02003 	mov	r2, r3
    379c:	ebfff903 	bl	1bb0 <_init+0x35c>
    37a0:	e50b0010 	str	r0, [fp, #-16]
    37a4:	e51b301c 	ldr	r3, [fp, #-28]
    37a8:	e3530000 	cmp	r3, #0
    37ac:	0a000017 	beq	3810 <set_buffer_name+0xac>
    37b0:	e51b1018 	ldr	r1, [fp, #-24]
    37b4:	e3a03010 	mov	r3, #16
    37b8:	e51b2010 	ldr	r2, [fp, #-16]
    37bc:	e0812002 	add	r2, r1, r2
    37c0:	e0823003 	add	r3, r2, r3
    37c4:	e3a02020 	mov	r2, #32
    37c8:	e5c32004 	strb	r2, [r3, #4]
    37cc:	e51b3010 	ldr	r3, [fp, #-16]
    37d0:	e2833001 	add	r3, r3, #1
    37d4:	e50b3010 	str	r3, [fp, #-16]
    37d8:	e51b3010 	ldr	r3, [fp, #-16]
    37dc:	e2833010 	add	r3, r3, #16
    37e0:	e51b2018 	ldr	r2, [fp, #-24]
    37e4:	e0823003 	add	r3, r2, r3
    37e8:	e2832004 	add	r2, r3, #4
    37ec:	e51b3010 	ldr	r3, [fp, #-16]
    37f0:	e263301f 	rsb	r3, r3, #31
    37f4:	e1a00002 	mov	r0, r2
    37f8:	e51b101c 	ldr	r1, [fp, #-28]
    37fc:	e1a02003 	mov	r2, r3
    3800:	ebfff8b7 	bl	1ae4 <_init+0x290>
    3804:	e51b3018 	ldr	r3, [fp, #-24]
    3808:	e3a02000 	mov	r2, #0
    380c:	e5c32033 	strb	r2, [r3, #51]	; 0x33
    3810:	e24bd008 	sub	sp, fp, #8
    3814:	e8bd8810 	pop	{r4, fp, pc}
    3818:	00004740 	andeq	r4, r0, r0, asr #14

0000381c <rt_print_init_inner>:
    381c:	e92d4800 	push	{fp, lr}
    3820:	e28db004 	add	fp, sp, #4
    3824:	e24dd008 	sub	sp, sp, #8
    3828:	e50b0008 	str	r0, [fp, #-8]
    382c:	e50b100c 	str	r1, [fp, #-12]
    3830:	e51b3008 	ldr	r3, [fp, #-8]
    3834:	e51b200c 	ldr	r2, [fp, #-12]
    3838:	e5832010 	str	r2, [r3, #16]
    383c:	e51b3008 	ldr	r3, [fp, #-8]
    3840:	e593300c 	ldr	r3, [r3, #12]
    3844:	e1a00003 	mov	r0, r3
    3848:	e3a01000 	mov	r1, #0
    384c:	e51b200c 	ldr	r2, [fp, #-12]
    3850:	ebfff89d 	bl	1acc <_init+0x278>
    3854:	e51b3008 	ldr	r3, [fp, #-8]
    3858:	e3a02000 	mov	r2, #0
    385c:	e5832034 	str	r2, [r3, #52]	; 0x34
    3860:	e51b3008 	ldr	r3, [fp, #-8]
    3864:	e3a02000 	mov	r2, #0
    3868:	e5832000 	str	r2, [r3]
    386c:	e51b3008 	ldr	r3, [fp, #-8]
    3870:	e3a02000 	mov	r2, #0
    3874:	e5832008 	str	r2, [r3, #8]
    3878:	e59f3098 	ldr	r3, [pc, #152]	; 3918 <rt_print_init_inner+0xfc>
    387c:	e08f3003 	add	r3, pc, r3
    3880:	e1a00003 	mov	r0, r3
    3884:	ebfff818 	bl	18ec <_init+0x98>
    3888:	e59f308c 	ldr	r3, [pc, #140]	; 391c <rt_print_init_inner+0x100>
    388c:	e08f3003 	add	r3, pc, r3
    3890:	e5932000 	ldr	r2, [r3]
    3894:	e51b3008 	ldr	r3, [fp, #-8]
    3898:	e5832004 	str	r2, [r3, #4]
    389c:	e59f307c 	ldr	r3, [pc, #124]	; 3920 <rt_print_init_inner+0x104>
    38a0:	e08f3003 	add	r3, pc, r3
    38a4:	e5933000 	ldr	r3, [r3]
    38a8:	e3530000 	cmp	r3, #0
    38ac:	0a000004 	beq	38c4 <rt_print_init_inner+0xa8>
    38b0:	e59f306c 	ldr	r3, [pc, #108]	; 3924 <rt_print_init_inner+0x108>
    38b4:	e08f3003 	add	r3, pc, r3
    38b8:	e5933000 	ldr	r3, [r3]
    38bc:	e51b2008 	ldr	r2, [fp, #-8]
    38c0:	e5832008 	str	r2, [r3, #8]
    38c4:	e59f305c 	ldr	r3, [pc, #92]	; 3928 <rt_print_init_inner+0x10c>
    38c8:	e08f3003 	add	r3, pc, r3
    38cc:	e51b2008 	ldr	r2, [fp, #-8]
    38d0:	e5832000 	str	r2, [r3]
    38d4:	e59f3050 	ldr	r3, [pc, #80]	; 392c <rt_print_init_inner+0x110>
    38d8:	e08f3003 	add	r3, pc, r3
    38dc:	e5933000 	ldr	r3, [r3]
    38e0:	e2832001 	add	r2, r3, #1
    38e4:	e59f3044 	ldr	r3, [pc, #68]	; 3930 <rt_print_init_inner+0x114>
    38e8:	e08f3003 	add	r3, pc, r3
    38ec:	e5832000 	str	r2, [r3]
    38f0:	e59f303c 	ldr	r3, [pc, #60]	; 3934 <rt_print_init_inner+0x118>
    38f4:	e08f3003 	add	r3, pc, r3
    38f8:	e1a00003 	mov	r0, r3
    38fc:	ebfff8c0 	bl	1c04 <_init+0x3b0>
    3900:	e59f3030 	ldr	r3, [pc, #48]	; 3938 <rt_print_init_inner+0x11c>
    3904:	e08f3003 	add	r3, pc, r3
    3908:	e1a00003 	mov	r0, r3
    390c:	ebfff7d8 	bl	1874 <_init+0x20>
    3910:	e24bd004 	sub	sp, fp, #4
    3914:	e8bd8800 	pop	{fp, pc}
    3918:	0000caa0 	andeq	ip, r0, r0, lsr #21
    391c:	0000ca74 	andeq	ip, r0, r4, ror sl
    3920:	0000ca60 	andeq	ip, r0, r0, ror #20
    3924:	0000ca4c 	andeq	ip, r0, ip, asr #20
    3928:	0000ca38 	andeq	ip, r0, r8, lsr sl
    392c:	0000ca2c 	andeq	ip, r0, ip, lsr #20
    3930:	0000ca1c 	andeq	ip, r0, ip, lsl sl
    3934:	0000ca44 	andeq	ip, r0, r4, asr #20
    3938:	0000ca18 	andeq	ip, r0, r8, lsl sl

0000393c <rt_print_init>:
    393c:	e92d4800 	push	{fp, lr}
    3940:	e28db004 	add	fp, sp, #4
    3944:	e24dd020 	sub	sp, sp, #32
    3948:	e50b0020 	str	r0, [fp, #-32]
    394c:	e50b1024 	str	r1, [fp, #-36]	; 0x24
    3950:	e59f32ac 	ldr	r3, [pc, #684]	; 3c04 <rt_print_init+0x2c8>
    3954:	e08f3003 	add	r3, pc, r3
    3958:	e5933000 	ldr	r3, [r3]
    395c:	e1a00003 	mov	r0, r3
    3960:	ebfff8ad 	bl	1c1c <_init+0x3c8>
    3964:	e50b0008 	str	r0, [fp, #-8]
    3968:	e51b3020 	ldr	r3, [fp, #-32]
    396c:	e50b300c 	str	r3, [fp, #-12]
    3970:	e59f3290 	ldr	r3, [pc, #656]	; 3c08 <rt_print_init+0x2cc>
    3974:	e08f3003 	add	r3, pc, r3
    3978:	e1a00003 	mov	r0, r3
    397c:	e59f3288 	ldr	r3, [pc, #648]	; 3c0c <rt_print_init+0x2d0>
    3980:	e08f3003 	add	r3, pc, r3
    3984:	e1a01003 	mov	r1, r3
    3988:	ebfff82b 	bl	1a3c <_init+0x1e8>
    398c:	e51b300c 	ldr	r3, [fp, #-12]
    3990:	e3530000 	cmp	r3, #0
    3994:	1a000004 	bne	39ac <rt_print_init+0x70>
    3998:	e59f3270 	ldr	r3, [pc, #624]	; 3c10 <rt_print_init+0x2d4>
    399c:	e08f3003 	add	r3, pc, r3
    39a0:	e5933000 	ldr	r3, [r3]
    39a4:	e50b300c 	str	r3, [fp, #-12]
    39a8:	ea000004 	b	39c0 <rt_print_init+0x84>
    39ac:	e51b300c 	ldr	r3, [fp, #-12]
    39b0:	e35300ff 	cmp	r3, #255	; 0xff
    39b4:	8a000001 	bhi	39c0 <rt_print_init+0x84>
    39b8:	e3a03016 	mov	r3, #22
    39bc:	ea00008d 	b	3bf8 <rt_print_init+0x2bc>
    39c0:	e51b3008 	ldr	r3, [fp, #-8]
    39c4:	e3530000 	cmp	r3, #0
    39c8:	0a000010 	beq	3a10 <rt_print_init+0xd4>
    39cc:	e51b3008 	ldr	r3, [fp, #-8]
    39d0:	e5932010 	ldr	r2, [r3, #16]
    39d4:	e51b300c 	ldr	r3, [fp, #-12]
    39d8:	e1520003 	cmp	r2, r3
    39dc:	0a000002 	beq	39ec <rt_print_init+0xb0>
    39e0:	e51b3020 	ldr	r3, [fp, #-32]
    39e4:	e3530000 	cmp	r3, #0
    39e8:	1a000004 	bne	3a00 <rt_print_init+0xc4>
    39ec:	e51b0008 	ldr	r0, [fp, #-8]
    39f0:	e51b1024 	ldr	r1, [fp, #-36]	; 0x24
    39f4:	ebffff5a 	bl	3764 <set_buffer_name>
    39f8:	e3a03000 	mov	r3, #0
    39fc:	ea00007d 	b	3bf8 <rt_print_init+0x2bc>
    3a00:	e51b0008 	ldr	r0, [fp, #-8]
    3a04:	eb000100 	bl	3e0c <cleanup_buffer>
    3a08:	e3a03000 	mov	r3, #0
    3a0c:	e50b3008 	str	r3, [fp, #-8]
    3a10:	e3a03000 	mov	r3, #0
    3a14:	e50b3014 	str	r3, [fp, #-20]
    3a18:	ea00000d 	b	3a54 <rt_print_init+0x118>
    3a1c:	e59f31f0 	ldr	r3, [pc, #496]	; 3c14 <rt_print_init+0x2d8>
    3a20:	e08f3003 	add	r3, pc, r3
    3a24:	e5932000 	ldr	r2, [r3]
    3a28:	e51b3014 	ldr	r3, [fp, #-20]
    3a2c:	e1a03103 	lsl	r3, r3, #2
    3a30:	e0823003 	add	r3, r2, r3
    3a34:	e5933000 	ldr	r3, [r3]
    3a38:	e50b3010 	str	r3, [fp, #-16]
    3a3c:	e51b3010 	ldr	r3, [fp, #-16]
    3a40:	e3530000 	cmp	r3, #0
    3a44:	1a000009 	bne	3a70 <rt_print_init+0x134>
    3a48:	e51b3014 	ldr	r3, [fp, #-20]
    3a4c:	e2833001 	add	r3, r3, #1
    3a50:	e50b3014 	str	r3, [fp, #-20]
    3a54:	e59f31bc 	ldr	r3, [pc, #444]	; 3c18 <rt_print_init+0x2dc>
    3a58:	e08f3003 	add	r3, pc, r3
    3a5c:	e5933000 	ldr	r3, [r3]
    3a60:	e51b2014 	ldr	r2, [fp, #-20]
    3a64:	e1520003 	cmp	r2, r3
    3a68:	3affffeb 	bcc	3a1c <rt_print_init+0xe0>
    3a6c:	ea000039 	b	3b58 <rt_print_init+0x21c>
    3a70:	e1a00000 	nop			; (mov r0, r0)
    3a74:	e51b3010 	ldr	r3, [fp, #-16]
    3a78:	e50b3018 	str	r3, [fp, #-24]
    3a7c:	e51b3018 	ldr	r3, [fp, #-24]
    3a80:	e2632000 	rsb	r2, r3, #0
    3a84:	e0032002 	and	r2, r3, r2
    3a88:	e16f2f12 	clz	r2, r2
    3a8c:	e262201f 	rsb	r2, r2, #31
    3a90:	e3530000 	cmp	r3, #0
    3a94:	1a000000 	bne	3a9c <rt_print_init+0x160>
    3a98:	e3e02000 	mvn	r2, #0
    3a9c:	e2823001 	add	r3, r2, #1
    3aa0:	e2433001 	sub	r3, r3, #1
    3aa4:	e50b301c 	str	r3, [fp, #-28]
    3aa8:	e59f316c 	ldr	r3, [pc, #364]	; 3c1c <rt_print_init+0x2e0>
    3aac:	e08f3003 	add	r3, pc, r3
    3ab0:	e5932000 	ldr	r2, [r3]
    3ab4:	e51b3014 	ldr	r3, [fp, #-20]
    3ab8:	e1a03103 	lsl	r3, r3, #2
    3abc:	e0823003 	add	r3, r2, r3
    3ac0:	e1a01003 	mov	r1, r3
    3ac4:	e51b301c 	ldr	r3, [fp, #-28]
    3ac8:	e3a02001 	mov	r2, #1
    3acc:	e1a03312 	lsl	r3, r2, r3
    3ad0:	e1e02003 	mvn	r2, r3
    3ad4:	e51b3018 	ldr	r3, [fp, #-24]
    3ad8:	e0023003 	and	r3, r2, r3
    3adc:	e51b2018 	ldr	r2, [fp, #-24]
    3ae0:	e1a00001 	mov	r0, r1
    3ae4:	e1a01002 	mov	r1, r2
    3ae8:	e1a02003 	mov	r2, r3
    3aec:	eb000d0c 	bl	6f24 <__sync_val_compare_and_swap_4>
    3af0:	e50b0010 	str	r0, [fp, #-16]
    3af4:	e51b2010 	ldr	r2, [fp, #-16]
    3af8:	e51b3018 	ldr	r3, [fp, #-24]
    3afc:	e1520003 	cmp	r2, r3
    3b00:	0a000002 	beq	3b10 <rt_print_init+0x1d4>
    3b04:	e51b3010 	ldr	r3, [fp, #-16]
    3b08:	e3530000 	cmp	r3, #0
    3b0c:	1affffd8 	bne	3a74 <rt_print_init+0x138>
    3b10:	e51b3014 	ldr	r3, [fp, #-20]
    3b14:	e1a03283 	lsl	r3, r3, #5
    3b18:	e51b201c 	ldr	r2, [fp, #-28]
    3b1c:	e0823003 	add	r3, r2, r3
    3b20:	e50b301c 	str	r3, [fp, #-28]
    3b24:	e51b3010 	ldr	r3, [fp, #-16]
    3b28:	e3530000 	cmp	r3, #0
    3b2c:	0affffb7 	beq	3a10 <rt_print_init+0xd4>
    3b30:	e59f30e8 	ldr	r3, [pc, #232]	; 3c20 <rt_print_init+0x2e4>
    3b34:	e08f3003 	add	r3, pc, r3
    3b38:	e5933000 	ldr	r3, [r3]
    3b3c:	e51b201c 	ldr	r2, [fp, #-28]
    3b40:	e0020293 	mul	r2, r3, r2
    3b44:	e59f30d8 	ldr	r3, [pc, #216]	; 3c24 <rt_print_init+0x2e8>
    3b48:	e08f3003 	add	r3, pc, r3
    3b4c:	e5933000 	ldr	r3, [r3]
    3b50:	e0823003 	add	r3, r2, r3
    3b54:	e50b3008 	str	r3, [fp, #-8]
    3b58:	e51b3008 	ldr	r3, [fp, #-8]
    3b5c:	e3530000 	cmp	r3, #0
    3b60:	1a00001a 	bne	3bd0 <rt_print_init+0x294>
    3b64:	ebfff778 	bl	194c <_init+0xf8>
    3b68:	e3a00038 	mov	r0, #56	; 0x38
    3b6c:	ebfff7a9 	bl	1a18 <_init+0x1c4>
    3b70:	e1a03000 	mov	r3, r0
    3b74:	e50b3008 	str	r3, [fp, #-8]
    3b78:	e51b3008 	ldr	r3, [fp, #-8]
    3b7c:	e3530000 	cmp	r3, #0
    3b80:	1a000001 	bne	3b8c <rt_print_init+0x250>
    3b84:	e3a0300c 	mov	r3, #12
    3b88:	ea00001a 	b	3bf8 <rt_print_init+0x2bc>
    3b8c:	e51b000c 	ldr	r0, [fp, #-12]
    3b90:	ebfff7a0 	bl	1a18 <_init+0x1c4>
    3b94:	e1a03000 	mov	r3, r0
    3b98:	e1a02003 	mov	r2, r3
    3b9c:	e51b3008 	ldr	r3, [fp, #-8]
    3ba0:	e583200c 	str	r2, [r3, #12]
    3ba4:	e51b3008 	ldr	r3, [fp, #-8]
    3ba8:	e593300c 	ldr	r3, [r3, #12]
    3bac:	e3530000 	cmp	r3, #0
    3bb0:	1a000003 	bne	3bc4 <rt_print_init+0x288>
    3bb4:	e51b0008 	ldr	r0, [fp, #-8]
    3bb8:	ebfff748 	bl	18e0 <_init+0x8c>
    3bbc:	e3a0300c 	mov	r3, #12
    3bc0:	ea00000c 	b	3bf8 <rt_print_init+0x2bc>
    3bc4:	e51b0008 	ldr	r0, [fp, #-8]
    3bc8:	e51b100c 	ldr	r1, [fp, #-12]
    3bcc:	ebffff12 	bl	381c <rt_print_init_inner>
    3bd0:	e51b0008 	ldr	r0, [fp, #-8]
    3bd4:	e51b1024 	ldr	r1, [fp, #-36]	; 0x24
    3bd8:	ebfffee1 	bl	3764 <set_buffer_name>
    3bdc:	e59f3044 	ldr	r3, [pc, #68]	; 3c28 <rt_print_init+0x2ec>
    3be0:	e08f3003 	add	r3, pc, r3
    3be4:	e5933000 	ldr	r3, [r3]
    3be8:	e1a00003 	mov	r0, r3
    3bec:	e51b1008 	ldr	r1, [fp, #-8]
    3bf0:	ebfff7d6 	bl	1b50 <_init+0x2fc>
    3bf4:	e3a03000 	mov	r3, #0
    3bf8:	e1a00003 	mov	r0, r3
    3bfc:	e24bd004 	sub	sp, fp, #4
    3c00:	e8bd8800 	pop	{fp, pc}
    3c04:	0000ca14 	andeq	ip, r0, r4, lsl sl
    3c08:	0000ca10 	andeq	ip, r0, r0, lsl sl
    3c0c:	00000b00 	andeq	r0, r0, r0, lsl #22
    3c10:	0000c970 	andeq	ip, r0, r0, ror r9
    3c14:	0000c950 	andeq	ip, r0, r0, asr r9
    3c18:	0000c91c 	andeq	ip, r0, ip, lsl r9
    3c1c:	0000c8c4 	andeq	ip, r0, r4, asr #17
    3c20:	0000c844 	andeq	ip, r0, r4, asr #16
    3c24:	0000c834 	andeq	ip, r0, r4, lsr r8
    3c28:	0000c788 	andeq	ip, r0, r8, lsl #15

00003c2c <rt_print_auto_init>:
    3c2c:	e92d4800 	push	{fp, lr}
    3c30:	e28db004 	add	fp, sp, #4
    3c34:	e24dd008 	sub	sp, sp, #8
    3c38:	e50b0008 	str	r0, [fp, #-8]
    3c3c:	e59f3038 	ldr	r3, [pc, #56]	; 3c7c <rt_print_auto_init+0x50>
    3c40:	e08f3003 	add	r3, pc, r3
    3c44:	e51b2008 	ldr	r2, [fp, #-8]
    3c48:	e5832000 	str	r2, [r3]
    3c4c:	e51b3008 	ldr	r3, [fp, #-8]
    3c50:	e3530000 	cmp	r3, #0
    3c54:	0a000006 	beq	3c74 <rt_print_auto_init+0x48>
    3c58:	e59f3020 	ldr	r3, [pc, #32]	; 3c80 <rt_print_auto_init+0x54>
    3c5c:	e08f3003 	add	r3, pc, r3
    3c60:	e1a00003 	mov	r0, r3
    3c64:	e59f3018 	ldr	r3, [pc, #24]	; 3c84 <rt_print_auto_init+0x58>
    3c68:	e08f3003 	add	r3, pc, r3
    3c6c:	e1a01003 	mov	r1, r3
    3c70:	ebfff771 	bl	1a3c <_init+0x1e8>
    3c74:	e24bd004 	sub	sp, fp, #4
    3c78:	e8bd8800 	pop	{fp, pc}
    3c7c:	0000c6d8 	ldrdeq	ip, [r0], -r8
    3c80:	0000c728 	andeq	ip, r0, r8, lsr #14
    3c84:	00000818 	andeq	r0, r0, r8, lsl r8

00003c88 <rt_print_cleanup>:
    3c88:	e92d4800 	push	{fp, lr}
    3c8c:	e28db004 	add	fp, sp, #4
    3c90:	e24dd008 	sub	sp, sp, #8
    3c94:	e59f3078 	ldr	r3, [pc, #120]	; 3d14 <rt_print_cleanup+0x8c>
    3c98:	e08f3003 	add	r3, pc, r3
    3c9c:	e5933000 	ldr	r3, [r3]
    3ca0:	e1a00003 	mov	r0, r3
    3ca4:	ebfff7dc 	bl	1c1c <_init+0x3c8>
    3ca8:	e50b0008 	str	r0, [fp, #-8]
    3cac:	e51b3008 	ldr	r3, [fp, #-8]
    3cb0:	e3530000 	cmp	r3, #0
    3cb4:	0a000002 	beq	3cc4 <rt_print_cleanup+0x3c>
    3cb8:	e51b0008 	ldr	r0, [fp, #-8]
    3cbc:	eb000052 	bl	3e0c <cleanup_buffer>
    3cc0:	ea000008 	b	3ce8 <rt_print_cleanup+0x60>
    3cc4:	e59f304c 	ldr	r3, [pc, #76]	; 3d18 <rt_print_cleanup+0x90>
    3cc8:	e08f3003 	add	r3, pc, r3
    3ccc:	e1a00003 	mov	r0, r3
    3cd0:	ebfff705 	bl	18ec <_init+0x98>
    3cd4:	eb000127 	bl	4178 <print_buffers>
    3cd8:	e59f303c 	ldr	r3, [pc, #60]	; 3d1c <rt_print_cleanup+0x94>
    3cdc:	e08f3003 	add	r3, pc, r3
    3ce0:	e1a00003 	mov	r0, r3
    3ce4:	ebfff6e2 	bl	1874 <_init+0x20>
    3ce8:	e59f3030 	ldr	r3, [pc, #48]	; 3d20 <rt_print_cleanup+0x98>
    3cec:	e08f3003 	add	r3, pc, r3
    3cf0:	e5933000 	ldr	r3, [r3]
    3cf4:	e1a00003 	mov	r0, r3
    3cf8:	ebfff77c 	bl	1af0 <_init+0x29c>
    3cfc:	e59f3020 	ldr	r3, [pc, #32]	; 3d24 <rt_print_cleanup+0x9c>
    3d00:	e08f3003 	add	r3, pc, r3
    3d04:	e3a02000 	mov	r2, #0
    3d08:	e5832000 	str	r2, [r3]
    3d0c:	e24bd004 	sub	sp, fp, #4
    3d10:	e8bd8800 	pop	{fp, pc}
    3d14:	0000c6d0 	ldrdeq	ip, [r0], -r0
    3d18:	0000c654 	andeq	ip, r0, r4, asr r6
    3d1c:	0000c640 	andeq	ip, r0, r0, asr #12
    3d20:	0000c680 	andeq	ip, r0, r0, lsl #13
    3d24:	0000c66c 	andeq	ip, r0, ip, ror #12

00003d28 <rt_print_buffer_name>:
    3d28:	e92d4800 	push	{fp, lr}
    3d2c:	e28db004 	add	fp, sp, #4
    3d30:	e24dd008 	sub	sp, sp, #8
    3d34:	e59f3088 	ldr	r3, [pc, #136]	; 3dc4 <rt_print_buffer_name+0x9c>
    3d38:	e08f3003 	add	r3, pc, r3
    3d3c:	e5933000 	ldr	r3, [r3]
    3d40:	e1a00003 	mov	r0, r3
    3d44:	ebfff7b4 	bl	1c1c <_init+0x3c8>
    3d48:	e50b0008 	str	r0, [fp, #-8]
    3d4c:	e51b3008 	ldr	r3, [fp, #-8]
    3d50:	e3530000 	cmp	r3, #0
    3d54:	1a000015 	bne	3db0 <rt_print_buffer_name+0x88>
    3d58:	e3e03000 	mvn	r3, #0
    3d5c:	e50b300c 	str	r3, [fp, #-12]
    3d60:	e59f3060 	ldr	r3, [pc, #96]	; 3dc8 <rt_print_buffer_name+0xa0>
    3d64:	e08f3003 	add	r3, pc, r3
    3d68:	e5933000 	ldr	r3, [r3]
    3d6c:	e3530000 	cmp	r3, #0
    3d70:	0a000003 	beq	3d84 <rt_print_buffer_name+0x5c>
    3d74:	e3a00000 	mov	r0, #0
    3d78:	e3a01000 	mov	r1, #0
    3d7c:	ebfff713 	bl	19d0 <_init+0x17c>
    3d80:	e50b000c 	str	r0, [fp, #-12]
    3d84:	e51b300c 	ldr	r3, [fp, #-12]
    3d88:	e3530000 	cmp	r3, #0
    3d8c:	0a000001 	beq	3d98 <rt_print_buffer_name+0x70>
    3d90:	e3a03000 	mov	r3, #0
    3d94:	ea000007 	b	3db8 <rt_print_buffer_name+0x90>
    3d98:	e59f302c 	ldr	r3, [pc, #44]	; 3dcc <rt_print_buffer_name+0xa4>
    3d9c:	e08f3003 	add	r3, pc, r3
    3da0:	e5933000 	ldr	r3, [r3]
    3da4:	e1a00003 	mov	r0, r3
    3da8:	ebfff79b 	bl	1c1c <_init+0x3c8>
    3dac:	e50b0008 	str	r0, [fp, #-8]
    3db0:	e51b3008 	ldr	r3, [fp, #-8]
    3db4:	e2833014 	add	r3, r3, #20
    3db8:	e1a00003 	mov	r0, r3
    3dbc:	e24bd004 	sub	sp, fp, #4
    3dc0:	e8bd8800 	pop	{fp, pc}
    3dc4:	0000c630 	andeq	ip, r0, r0, lsr r6
    3dc8:	0000c5b4 			; <UNDEFINED> instruction: 0x0000c5b4
    3dcc:	0000c5cc 	andeq	ip, r0, ip, asr #11

00003dd0 <rt_print_flush_buffers>:
    3dd0:	e92d4800 	push	{fp, lr}
    3dd4:	e28db004 	add	fp, sp, #4
    3dd8:	ebfff6db 	bl	194c <_init+0xf8>
    3ddc:	e59f3020 	ldr	r3, [pc, #32]	; 3e04 <rt_print_flush_buffers+0x34>
    3de0:	e08f3003 	add	r3, pc, r3
    3de4:	e1a00003 	mov	r0, r3
    3de8:	ebfff6bf 	bl	18ec <_init+0x98>
    3dec:	eb0000e1 	bl	4178 <print_buffers>
    3df0:	e59f3010 	ldr	r3, [pc, #16]	; 3e08 <rt_print_flush_buffers+0x38>
    3df4:	e08f3003 	add	r3, pc, r3
    3df8:	e1a00003 	mov	r0, r3
    3dfc:	ebfff69c 	bl	1874 <_init+0x20>
    3e00:	e8bd8800 	pop	{fp, pc}
    3e04:	0000c53c 	andeq	ip, r0, ip, lsr r5
    3e08:	0000c528 	andeq	ip, r0, r8, lsr #10

00003e0c <cleanup_buffer>:
    3e0c:	e92d4800 	push	{fp, lr}
    3e10:	e28db004 	add	fp, sp, #4
    3e14:	e24dd020 	sub	sp, sp, #32
    3e18:	e50b0020 	str	r0, [fp, #-32]
    3e1c:	ebfff6ca 	bl	194c <_init+0xf8>
    3e20:	e59f3208 	ldr	r3, [pc, #520]	; 4030 <cleanup_buffer+0x224>
    3e24:	e08f3003 	add	r3, pc, r3
    3e28:	e5933000 	ldr	r3, [r3]
    3e2c:	e1a00003 	mov	r0, r3
    3e30:	e3a01000 	mov	r1, #0
    3e34:	ebfff745 	bl	1b50 <_init+0x2fc>
    3e38:	e59f31f4 	ldr	r3, [pc, #500]	; 4034 <cleanup_buffer+0x228>
    3e3c:	e08f3003 	add	r3, pc, r3
    3e40:	e1a00003 	mov	r0, r3
    3e44:	ebfff6a8 	bl	18ec <_init+0x98>
    3e48:	eb0000ca 	bl	4178 <print_buffers>
    3e4c:	e59f31e4 	ldr	r3, [pc, #484]	; 4038 <cleanup_buffer+0x22c>
    3e50:	e08f3003 	add	r3, pc, r3
    3e54:	e1a00003 	mov	r0, r3
    3e58:	ebfff685 	bl	1874 <_init+0x20>
    3e5c:	e51b2020 	ldr	r2, [fp, #-32]
    3e60:	e59f31d4 	ldr	r3, [pc, #468]	; 403c <cleanup_buffer+0x230>
    3e64:	e08f3003 	add	r3, pc, r3
    3e68:	e5933000 	ldr	r3, [r3]
    3e6c:	e0632002 	rsb	r2, r3, r2
    3e70:	e59f31c8 	ldr	r3, [pc, #456]	; 4040 <cleanup_buffer+0x234>
    3e74:	e08f3003 	add	r3, pc, r3
    3e78:	e5933000 	ldr	r3, [r3]
    3e7c:	e1520003 	cmp	r2, r3
    3e80:	2a000039 	bcs	3f6c <cleanup_buffer+0x160>
    3e84:	e51b2020 	ldr	r2, [fp, #-32]
    3e88:	e59f31b4 	ldr	r3, [pc, #436]	; 4044 <cleanup_buffer+0x238>
    3e8c:	e08f3003 	add	r3, pc, r3
    3e90:	e5933000 	ldr	r3, [r3]
    3e94:	e0632002 	rsb	r2, r3, r2
    3e98:	e59f31a8 	ldr	r3, [pc, #424]	; 4048 <cleanup_buffer+0x23c>
    3e9c:	e08f3003 	add	r3, pc, r3
    3ea0:	e5933000 	ldr	r3, [r3]
    3ea4:	e1a00002 	mov	r0, r2
    3ea8:	e1a01003 	mov	r1, r3
    3eac:	eb000861 	bl	6038 <__aeabi_uidiv>
    3eb0:	e1a03000 	mov	r3, r0
    3eb4:	e50b3014 	str	r3, [fp, #-20]
    3eb8:	e51b3014 	ldr	r3, [fp, #-20]
    3ebc:	e1a032a3 	lsr	r3, r3, #5
    3ec0:	e50b3018 	str	r3, [fp, #-24]
    3ec4:	e51b3014 	ldr	r3, [fp, #-20]
    3ec8:	e203301f 	and	r3, r3, #31
    3ecc:	e50b3014 	str	r3, [fp, #-20]
    3ed0:	e59f3174 	ldr	r3, [pc, #372]	; 404c <cleanup_buffer+0x240>
    3ed4:	e08f3003 	add	r3, pc, r3
    3ed8:	e5932000 	ldr	r2, [r3]
    3edc:	e51b3018 	ldr	r3, [fp, #-24]
    3ee0:	e1a03103 	lsl	r3, r3, #2
    3ee4:	e0823003 	add	r3, r2, r3
    3ee8:	e5933000 	ldr	r3, [r3]
    3eec:	e50b3008 	str	r3, [fp, #-8]
    3ef0:	e51b3014 	ldr	r3, [fp, #-20]
    3ef4:	e51b2008 	ldr	r2, [fp, #-8]
    3ef8:	e1a03332 	lsr	r3, r2, r3
    3efc:	e2033001 	and	r3, r3, #1
    3f00:	e3530000 	cmp	r3, #0
    3f04:	1a000046 	bne	4024 <cleanup_buffer+0x218>
    3f08:	e51b3008 	ldr	r3, [fp, #-8]
    3f0c:	e50b301c 	str	r3, [fp, #-28]
    3f10:	e59f3138 	ldr	r3, [pc, #312]	; 4050 <cleanup_buffer+0x244>
    3f14:	e08f3003 	add	r3, pc, r3
    3f18:	e5932000 	ldr	r2, [r3]
    3f1c:	e51b3018 	ldr	r3, [fp, #-24]
    3f20:	e1a03103 	lsl	r3, r3, #2
    3f24:	e0823003 	add	r3, r2, r3
    3f28:	e1a01003 	mov	r1, r3
    3f2c:	e51b3014 	ldr	r3, [fp, #-20]
    3f30:	e3a02001 	mov	r2, #1
    3f34:	e1a02312 	lsl	r2, r2, r3
    3f38:	e51b301c 	ldr	r3, [fp, #-28]
    3f3c:	e1823003 	orr	r3, r2, r3
    3f40:	e51b201c 	ldr	r2, [fp, #-28]
    3f44:	e1a00001 	mov	r0, r1
    3f48:	e1a01002 	mov	r1, r2
    3f4c:	e1a02003 	mov	r2, r3
    3f50:	eb000bf3 	bl	6f24 <__sync_val_compare_and_swap_4>
    3f54:	e50b0008 	str	r0, [fp, #-8]
    3f58:	e51b2008 	ldr	r2, [fp, #-8]
    3f5c:	e51b301c 	ldr	r3, [fp, #-28]
    3f60:	e1520003 	cmp	r2, r3
    3f64:	1affffe7 	bne	3f08 <cleanup_buffer+0xfc>
    3f68:	ea00002e 	b	4028 <cleanup_buffer+0x21c>
    3f6c:	e1a00000 	nop			; (mov r0, r0)
    3f70:	e59f30dc 	ldr	r3, [pc, #220]	; 4054 <cleanup_buffer+0x248>
    3f74:	e08f3003 	add	r3, pc, r3
    3f78:	e1a00003 	mov	r0, r3
    3f7c:	ebfff65a 	bl	18ec <_init+0x98>
    3f80:	e51b3020 	ldr	r3, [fp, #-32]
    3f84:	e5933008 	ldr	r3, [r3, #8]
    3f88:	e50b300c 	str	r3, [fp, #-12]
    3f8c:	e51b3020 	ldr	r3, [fp, #-32]
    3f90:	e5933004 	ldr	r3, [r3, #4]
    3f94:	e50b3010 	str	r3, [fp, #-16]
    3f98:	e51b300c 	ldr	r3, [fp, #-12]
    3f9c:	e3530000 	cmp	r3, #0
    3fa0:	0a000003 	beq	3fb4 <cleanup_buffer+0x1a8>
    3fa4:	e51b300c 	ldr	r3, [fp, #-12]
    3fa8:	e51b2010 	ldr	r2, [fp, #-16]
    3fac:	e5832004 	str	r2, [r3, #4]
    3fb0:	ea000003 	b	3fc4 <cleanup_buffer+0x1b8>
    3fb4:	e59f309c 	ldr	r3, [pc, #156]	; 4058 <cleanup_buffer+0x24c>
    3fb8:	e08f3003 	add	r3, pc, r3
    3fbc:	e51b2010 	ldr	r2, [fp, #-16]
    3fc0:	e5832000 	str	r2, [r3]
    3fc4:	e51b3010 	ldr	r3, [fp, #-16]
    3fc8:	e3530000 	cmp	r3, #0
    3fcc:	0a000002 	beq	3fdc <cleanup_buffer+0x1d0>
    3fd0:	e51b3010 	ldr	r3, [fp, #-16]
    3fd4:	e51b200c 	ldr	r2, [fp, #-12]
    3fd8:	e5832008 	str	r2, [r3, #8]
    3fdc:	e59f3078 	ldr	r3, [pc, #120]	; 405c <cleanup_buffer+0x250>
    3fe0:	e08f3003 	add	r3, pc, r3
    3fe4:	e5933000 	ldr	r3, [r3]
    3fe8:	e2432001 	sub	r2, r3, #1
    3fec:	e59f306c 	ldr	r3, [pc, #108]	; 4060 <cleanup_buffer+0x254>
    3ff0:	e08f3003 	add	r3, pc, r3
    3ff4:	e5832000 	str	r2, [r3]
    3ff8:	e59f3064 	ldr	r3, [pc, #100]	; 4064 <cleanup_buffer+0x258>
    3ffc:	e08f3003 	add	r3, pc, r3
    4000:	e1a00003 	mov	r0, r3
    4004:	ebfff61a 	bl	1874 <_init+0x20>
    4008:	e51b3020 	ldr	r3, [fp, #-32]
    400c:	e593300c 	ldr	r3, [r3, #12]
    4010:	e1a00003 	mov	r0, r3
    4014:	ebfff631 	bl	18e0 <_init+0x8c>
    4018:	e51b0020 	ldr	r0, [fp, #-32]
    401c:	ebfff62f 	bl	18e0 <_init+0x8c>
    4020:	ea000000 	b	4028 <cleanup_buffer+0x21c>
    4024:	e1a00000 	nop			; (mov r0, r0)
    4028:	e24bd004 	sub	sp, fp, #4
    402c:	e8bd8800 	pop	{fp, pc}
    4030:	0000c544 	andeq	ip, r0, r4, asr #10
    4034:	0000c4e0 	andeq	ip, r0, r0, ror #9
    4038:	0000c4cc 	andeq	ip, r0, ip, asr #9
    403c:	0000c518 	andeq	ip, r0, r8, lsl r5
    4040:	0000c50c 	andeq	ip, r0, ip, lsl #10
    4044:	0000c4f0 	strdeq	ip, [r0], -r0
    4048:	0000c4dc 	ldrdeq	ip, [r0], -ip	; <UNPREDICTABLE>
    404c:	0000c49c 	muleq	r0, ip, r4
    4050:	0000c45c 	andeq	ip, r0, ip, asr r4
    4054:	0000c3a8 	andeq	ip, r0, r8, lsr #7
    4058:	0000c348 	andeq	ip, r0, r8, asr #6
    405c:	0000c324 	andeq	ip, r0, r4, lsr #6
    4060:	0000c314 	andeq	ip, r0, r4, lsl r3
    4064:	0000c320 	andeq	ip, r0, r0, lsr #6

00004068 <get_next_seq_no>:
    4068:	e52db004 	push	{fp}		; (str fp, [sp, #-4]!)
    406c:	e28db000 	add	fp, sp, #0
    4070:	e24dd014 	sub	sp, sp, #20
    4074:	e50b0010 	str	r0, [fp, #-16]
    4078:	e51b3010 	ldr	r3, [fp, #-16]
    407c:	e593200c 	ldr	r2, [r3, #12]
    4080:	e51b3010 	ldr	r3, [fp, #-16]
    4084:	e5933034 	ldr	r3, [r3, #52]	; 0x34
    4088:	e0823003 	add	r3, r2, r3
    408c:	e50b3008 	str	r3, [fp, #-8]
    4090:	e51b3008 	ldr	r3, [fp, #-8]
    4094:	e5d32004 	ldrb	r2, [r3, #4]
    4098:	e5d31005 	ldrb	r1, [r3, #5]
    409c:	e1a01401 	lsl	r1, r1, #8
    40a0:	e1812002 	orr	r2, r1, r2
    40a4:	e5d31006 	ldrb	r1, [r3, #6]
    40a8:	e1a01801 	lsl	r1, r1, #16
    40ac:	e1812002 	orr	r2, r1, r2
    40b0:	e5d33007 	ldrb	r3, [r3, #7]
    40b4:	e1a03c03 	lsl	r3, r3, #24
    40b8:	e1833002 	orr	r3, r3, r2
    40bc:	e1a00003 	mov	r0, r3
    40c0:	e28bd000 	add	sp, fp, #0
    40c4:	e8bd0800 	pop	{fp}
    40c8:	e12fff1e 	bx	lr

000040cc <get_next_buffer>:
    40cc:	e92d4800 	push	{fp, lr}
    40d0:	e28db004 	add	fp, sp, #4
    40d4:	e24dd010 	sub	sp, sp, #16
    40d8:	e59f3094 	ldr	r3, [pc, #148]	; 4174 <get_next_buffer+0xa8>
    40dc:	e08f3003 	add	r3, pc, r3
    40e0:	e5933000 	ldr	r3, [r3]
    40e4:	e50b3008 	str	r3, [fp, #-8]
    40e8:	e3a03000 	mov	r3, #0
    40ec:	e50b300c 	str	r3, [fp, #-12]
    40f0:	e3a03000 	mov	r3, #0
    40f4:	e50b3010 	str	r3, [fp, #-16]
    40f8:	ea000016 	b	4158 <get_next_buffer+0x8c>
    40fc:	e51b3008 	ldr	r3, [fp, #-8]
    4100:	e5932034 	ldr	r2, [r3, #52]	; 0x34
    4104:	e51b3008 	ldr	r3, [fp, #-8]
    4108:	e5933000 	ldr	r3, [r3]
    410c:	e1520003 	cmp	r2, r3
    4110:	0a00000d 	beq	414c <get_next_buffer+0x80>
    4114:	e51b300c 	ldr	r3, [fp, #-12]
    4118:	e3530000 	cmp	r3, #0
    411c:	0a000005 	beq	4138 <get_next_buffer+0x6c>
    4120:	e51b0008 	ldr	r0, [fp, #-8]
    4124:	ebffffcf 	bl	4068 <get_next_seq_no>
    4128:	e1a02000 	mov	r2, r0
    412c:	e51b3010 	ldr	r3, [fp, #-16]
    4130:	e1520003 	cmp	r2, r3
    4134:	2a000004 	bcs	414c <get_next_buffer+0x80>
    4138:	e51b3008 	ldr	r3, [fp, #-8]
    413c:	e50b300c 	str	r3, [fp, #-12]
    4140:	e51b0008 	ldr	r0, [fp, #-8]
    4144:	ebffffc7 	bl	4068 <get_next_seq_no>
    4148:	e50b0010 	str	r0, [fp, #-16]
    414c:	e51b3008 	ldr	r3, [fp, #-8]
    4150:	e5933004 	ldr	r3, [r3, #4]
    4154:	e50b3008 	str	r3, [fp, #-8]
    4158:	e51b3008 	ldr	r3, [fp, #-8]
    415c:	e3530000 	cmp	r3, #0
    4160:	1affffe5 	bne	40fc <get_next_buffer+0x30>
    4164:	e51b300c 	ldr	r3, [fp, #-12]
    4168:	e1a00003 	mov	r0, r3
    416c:	e24bd004 	sub	sp, fp, #4
    4170:	e8bd8800 	pop	{fp, pc}
    4174:	0000c224 	andeq	ip, r0, r4, lsr #4

00004178 <print_buffers>:
    4178:	e92d4800 	push	{fp, lr}
    417c:	e28db004 	add	fp, sp, #4
    4180:	e24dd018 	sub	sp, sp, #24
    4184:	ebffffd0 	bl	40cc <get_next_buffer>
    4188:	e50b000c 	str	r0, [fp, #-12]
    418c:	e51b300c 	ldr	r3, [fp, #-12]
    4190:	e3530000 	cmp	r3, #0
    4194:	0a000065 	beq	4330 <print_buffers+0x1b8>
    4198:	e51b300c 	ldr	r3, [fp, #-12]
    419c:	e5933034 	ldr	r3, [r3, #52]	; 0x34
    41a0:	e50b3008 	str	r3, [fp, #-8]
    41a4:	e51b300c 	ldr	r3, [fp, #-12]
    41a8:	e593200c 	ldr	r2, [r3, #12]
    41ac:	e51b3008 	ldr	r3, [fp, #-8]
    41b0:	e0823003 	add	r3, r2, r3
    41b4:	e50b3010 	str	r3, [fp, #-16]
    41b8:	e51b3010 	ldr	r3, [fp, #-16]
    41bc:	e5d3200c 	ldrb	r2, [r3, #12]
    41c0:	e5d3100d 	ldrb	r1, [r3, #13]
    41c4:	e1a01401 	lsl	r1, r1, #8
    41c8:	e1812002 	orr	r2, r1, r2
    41cc:	e5d3100e 	ldrb	r1, [r3, #14]
    41d0:	e1a01801 	lsl	r1, r1, #16
    41d4:	e1812002 	orr	r2, r1, r2
    41d8:	e5d3300f 	ldrb	r3, [r3, #15]
    41dc:	e1a03c03 	lsl	r3, r3, #24
    41e0:	e1833002 	orr	r3, r3, r2
    41e4:	e50b3014 	str	r3, [fp, #-20]
    41e8:	e51b3014 	ldr	r3, [fp, #-20]
    41ec:	e3530000 	cmp	r3, #0
    41f0:	0a000046 	beq	4310 <print_buffers+0x198>
    41f4:	e51b3010 	ldr	r3, [fp, #-16]
    41f8:	e5d32000 	ldrb	r2, [r3]
    41fc:	e5d31001 	ldrb	r1, [r3, #1]
    4200:	e1a01401 	lsl	r1, r1, #8
    4204:	e1812002 	orr	r2, r1, r2
    4208:	e5d31002 	ldrb	r1, [r3, #2]
    420c:	e1a01801 	lsl	r1, r1, #16
    4210:	e1812002 	orr	r2, r1, r2
    4214:	e5d33003 	ldrb	r3, [r3, #3]
    4218:	e1a03c03 	lsl	r3, r3, #24
    421c:	e1833002 	orr	r3, r3, r2
    4220:	e3530000 	cmp	r3, #0
    4224:	1a000014 	bne	427c <print_buffers+0x104>
    4228:	e51b3010 	ldr	r3, [fp, #-16]
    422c:	e5d32008 	ldrb	r2, [r3, #8]
    4230:	e5d31009 	ldrb	r1, [r3, #9]
    4234:	e1a01401 	lsl	r1, r1, #8
    4238:	e1812002 	orr	r2, r1, r2
    423c:	e5d3100a 	ldrb	r1, [r3, #10]
    4240:	e1a01801 	lsl	r1, r1, #16
    4244:	e1812002 	orr	r2, r1, r2
    4248:	e5d3300b 	ldrb	r3, [r3, #11]
    424c:	e1a03c03 	lsl	r3, r3, #24
    4250:	e1833002 	orr	r3, r3, r2
    4254:	e1a02003 	mov	r2, r3
    4258:	e51b3010 	ldr	r3, [fp, #-16]
    425c:	e2833010 	add	r3, r3, #16
    4260:	e1a00002 	mov	r0, r2
    4264:	e59f20d0 	ldr	r2, [pc, #208]	; 433c <print_buffers+0x1c4>
    4268:	e08f2002 	add	r2, pc, r2
    426c:	e1a01002 	mov	r1, r2
    4270:	e1a02003 	mov	r2, r3
    4274:	ebfff64a 	bl	1ba4 <_init+0x350>
    4278:	ea00001e 	b	42f8 <print_buffers+0x180>
    427c:	e51b3010 	ldr	r3, [fp, #-16]
    4280:	e2831010 	add	r1, r3, #16
    4284:	e51b3010 	ldr	r3, [fp, #-16]
    4288:	e5d3200c 	ldrb	r2, [r3, #12]
    428c:	e5d3000d 	ldrb	r0, [r3, #13]
    4290:	e1a00400 	lsl	r0, r0, #8
    4294:	e1802002 	orr	r2, r0, r2
    4298:	e5d3000e 	ldrb	r0, [r3, #14]
    429c:	e1a00800 	lsl	r0, r0, #16
    42a0:	e1802002 	orr	r2, r0, r2
    42a4:	e5d3300f 	ldrb	r3, [r3, #15]
    42a8:	e1a03c03 	lsl	r3, r3, #24
    42ac:	e1833002 	orr	r3, r3, r2
    42b0:	e1a02003 	mov	r2, r3
    42b4:	e51b3010 	ldr	r3, [fp, #-16]
    42b8:	e5d30000 	ldrb	r0, [r3]
    42bc:	e5d3c001 	ldrb	ip, [r3, #1]
    42c0:	e1a0c40c 	lsl	ip, ip, #8
    42c4:	e18c0000 	orr	r0, ip, r0
    42c8:	e5d3c002 	ldrb	ip, [r3, #2]
    42cc:	e1a0c80c 	lsl	ip, ip, #16
    42d0:	e18c0000 	orr	r0, ip, r0
    42d4:	e5d33003 	ldrb	r3, [r3, #3]
    42d8:	e1a03c03 	lsl	r3, r3, #24
    42dc:	e1833000 	orr	r3, r3, r0
    42e0:	e1a00001 	mov	r0, r1
    42e4:	e1a01002 	mov	r1, r2
    42e8:	e3a02001 	mov	r2, #1
    42ec:	ebfff5b1 	bl	19b8 <_init+0x164>
    42f0:	e1a03000 	mov	r3, r0
    42f4:	e50b3018 	str	r3, [fp, #-24]
    42f8:	e51b2014 	ldr	r2, [fp, #-20]
    42fc:	e51b3008 	ldr	r3, [fp, #-8]
    4300:	e0823003 	add	r3, r2, r3
    4304:	e2833010 	add	r3, r3, #16
    4308:	e50b3008 	str	r3, [fp, #-8]
    430c:	ea000001 	b	4318 <print_buffers+0x1a0>
    4310:	e3a03000 	mov	r3, #0
    4314:	e50b3008 	str	r3, [fp, #-8]
    4318:	eb000b6c 	bl	70d0 <__sync_synchronize>
    431c:	e51b300c 	ldr	r3, [fp, #-12]
    4320:	e51b2008 	ldr	r2, [fp, #-8]
    4324:	e5832034 	str	r2, [r3, #52]	; 0x34
    4328:	eb000b68 	bl	70d0 <__sync_synchronize>
    432c:	eaffff94 	b	4184 <print_buffers+0xc>
    4330:	e1a00000 	nop			; (mov r0, r0)
    4334:	e24bd004 	sub	sp, fp, #4
    4338:	e8bd8800 	pop	{fp, pc}
    433c:	00003c70 	andeq	r3, r0, r0, ror ip

00004340 <unlock>:
    4340:	e92d4800 	push	{fp, lr}
    4344:	e28db004 	add	fp, sp, #4
    4348:	e24dd010 	sub	sp, sp, #16
    434c:	e50b0010 	str	r0, [fp, #-16]
    4350:	e51b3010 	ldr	r3, [fp, #-16]
    4354:	e50b3008 	str	r3, [fp, #-8]
    4358:	e51b0008 	ldr	r0, [fp, #-8]
    435c:	ebfff544 	bl	1874 <_init+0x20>
    4360:	e24bd004 	sub	sp, fp, #4
    4364:	e8bd8800 	pop	{fp, pc}

00004368 <printer_loop>:
    4368:	e92d4800 	push	{fp, lr}
    436c:	e28db004 	add	fp, sp, #4
    4370:	e24dde1b 	sub	sp, sp, #432	; 0x1b0
    4374:	e50b01b0 	str	r0, [fp, #-432]	; 0x1b0
    4378:	e24b3090 	sub	r3, fp, #144	; 0x90
    437c:	e1a00003 	mov	r0, r3
    4380:	ebfff5cb 	bl	1ab4 <_init+0x260>
    4384:	e24b3090 	sub	r3, fp, #144	; 0x90
    4388:	e3a00000 	mov	r0, #0
    438c:	e1a01003 	mov	r1, r3
    4390:	e3a02000 	mov	r2, #0
    4394:	ebfff596 	bl	19f4 <_init+0x1a0>
    4398:	e59f30cc 	ldr	r3, [pc, #204]	; 446c <printer_loop+0x104>
    439c:	e08f3003 	add	r3, pc, r3
    43a0:	e50b3008 	str	r3, [fp, #-8]
    43a4:	e59f30c4 	ldr	r3, [pc, #196]	; 4470 <printer_loop+0x108>
    43a8:	e08f3003 	add	r3, pc, r3
    43ac:	e50b300c 	str	r3, [fp, #-12]
    43b0:	e24b3f6b 	sub	r3, fp, #428	; 0x1ac
    43b4:	e1a00003 	mov	r0, r3
    43b8:	e3a01000 	mov	r1, #0
    43bc:	ebfff5f2 	bl	1b8c <_init+0x338>
    43c0:	e50b0010 	str	r0, [fp, #-16]
    43c4:	e51b3010 	ldr	r3, [fp, #-16]
    43c8:	e3530000 	cmp	r3, #0
    43cc:	0a000005 	beq	43e8 <printer_loop+0x80>
    43d0:	e51b3008 	ldr	r3, [fp, #-8]
    43d4:	e51b000c 	ldr	r0, [fp, #-12]
    43d8:	e12fff33 	blx	r3
    43dc:	e24b3f6b 	sub	r3, fp, #428	; 0x1ac
    43e0:	e1a00003 	mov	r0, r3
    43e4:	ebfff5c7 	bl	1b08 <_init+0x2b4>
    43e8:	e24b3f6b 	sub	r3, fp, #428	; 0x1ac
    43ec:	e1a00003 	mov	r0, r3
    43f0:	ebfff525 	bl	188c <_init+0x38>
    43f4:	e59f3078 	ldr	r3, [pc, #120]	; 4474 <printer_loop+0x10c>
    43f8:	e08f3003 	add	r3, pc, r3
    43fc:	e1a00003 	mov	r0, r3
    4400:	ebfff539 	bl	18ec <_init+0x98>
    4404:	ea000006 	b	4424 <printer_loop+0xbc>
    4408:	e59f3068 	ldr	r3, [pc, #104]	; 4478 <printer_loop+0x110>
    440c:	e08f3003 	add	r3, pc, r3
    4410:	e1a00003 	mov	r0, r3
    4414:	e59f3060 	ldr	r3, [pc, #96]	; 447c <printer_loop+0x114>
    4418:	e08f3003 	add	r3, pc, r3
    441c:	e1a01003 	mov	r1, r3
    4420:	ebfff5eb 	bl	1bd4 <_init+0x380>
    4424:	e59f3054 	ldr	r3, [pc, #84]	; 4480 <printer_loop+0x118>
    4428:	e08f3003 	add	r3, pc, r3
    442c:	e5933000 	ldr	r3, [r3]
    4430:	e3530000 	cmp	r3, #0
    4434:	0afffff3 	beq	4408 <printer_loop+0xa0>
    4438:	ebffff4e 	bl	4178 <print_buffers>
    443c:	e24b3f6b 	sub	r3, fp, #428	; 0x1ac
    4440:	e1a00003 	mov	r0, r3
    4444:	ebfff5a3 	bl	1ad8 <_init+0x284>
    4448:	e51b3008 	ldr	r3, [fp, #-8]
    444c:	e51b000c 	ldr	r0, [fp, #-12]
    4450:	e12fff33 	blx	r3
    4454:	e59f3028 	ldr	r3, [pc, #40]	; 4484 <printer_loop+0x11c>
    4458:	e08f3003 	add	r3, pc, r3
    445c:	e1a00003 	mov	r0, r3
    4460:	e3a01000 	mov	r1, #0
    4464:	ebfff526 	bl	1904 <_init+0xb0>
    4468:	eaffffca 	b	4398 <printer_loop+0x30>
    446c:	ffffff9c 			; <UNDEFINED> instruction: 0xffffff9c
    4470:	0000bf74 	andeq	fp, r0, r4, ror pc
    4474:	0000bf24 	andeq	fp, r0, r4, lsr #30
    4478:	0000bf2c 	andeq	fp, r0, ip, lsr #30
    447c:	0000bf04 	andeq	fp, r0, r4, lsl #30
    4480:	0000bedc 	ldrdeq	fp, [r0], -ip
    4484:	0000beb8 			; <UNDEFINED> instruction: 0x0000beb8

00004488 <spawn_printer_thread>:
    4488:	e92d4800 	push	{fp, lr}
    448c:	e28db004 	add	fp, sp, #4
    4490:	e24dd028 	sub	sp, sp, #40	; 0x28
    4494:	e24b3028 	sub	r3, fp, #40	; 0x28
    4498:	e1a00003 	mov	r0, r3
    449c:	ebfff581 	bl	1aa8 <_init+0x254>
    44a0:	e3a00000 	mov	r0, #0
    44a4:	ebfffa02 	bl	2cb4 <xeno_stacksize>
    44a8:	e1a03000 	mov	r3, r0
    44ac:	e24b2028 	sub	r2, fp, #40	; 0x28
    44b0:	e1a00002 	mov	r0, r2
    44b4:	e1a01003 	mov	r1, r3
    44b8:	ebfff520 	bl	1940 <_init+0xec>
    44bc:	e24b3028 	sub	r3, fp, #40	; 0x28
    44c0:	e1a00003 	mov	r0, r3
    44c4:	e3a01001 	mov	r1, #1
    44c8:	ebfff5ca 	bl	1bf8 <_init+0x3a4>
    44cc:	e24b3028 	sub	r3, fp, #40	; 0x28
    44d0:	e59f2024 	ldr	r2, [pc, #36]	; 44fc <spawn_printer_thread+0x74>
    44d4:	e08f2002 	add	r2, pc, r2
    44d8:	e1a00002 	mov	r0, r2
    44dc:	e1a01003 	mov	r1, r3
    44e0:	e59f3018 	ldr	r3, [pc, #24]	; 4500 <spawn_printer_thread+0x78>
    44e4:	e08f3003 	add	r3, pc, r3
    44e8:	e1a02003 	mov	r2, r3
    44ec:	e3a03000 	mov	r3, #0
    44f0:	ebfff542 	bl	1a00 <_init+0x1ac>
    44f4:	e24bd004 	sub	sp, fp, #4
    44f8:	e8bd8800 	pop	{fp, pc}
    44fc:	0000be98 	muleq	r0, r8, lr
    4500:	fffffe7c 			; <UNDEFINED> instruction: 0xfffffe7c

00004504 <forked_child_init>:
    4504:	e92d4800 	push	{fp, lr}
    4508:	e28db004 	add	fp, sp, #4
    450c:	e24dd008 	sub	sp, sp, #8
    4510:	e59f3134 	ldr	r3, [pc, #308]	; 464c <forked_child_init+0x148>
    4514:	e08f3003 	add	r3, pc, r3
    4518:	e5933000 	ldr	r3, [r3]
    451c:	e1a00003 	mov	r0, r3
    4520:	ebfff5bd 	bl	1c1c <_init+0x3c8>
    4524:	e50b000c 	str	r0, [fp, #-12]
    4528:	e59f3120 	ldr	r3, [pc, #288]	; 4650 <forked_child_init+0x14c>
    452c:	e08f3003 	add	r3, pc, r3
    4530:	e50b3008 	str	r3, [fp, #-8]
    4534:	e51b300c 	ldr	r3, [fp, #-12]
    4538:	e3530000 	cmp	r3, #0
    453c:	0a00000d 	beq	4578 <forked_child_init+0x74>
    4540:	e51b300c 	ldr	r3, [fp, #-12]
    4544:	e593200c 	ldr	r2, [r3, #12]
    4548:	e51b300c 	ldr	r3, [fp, #-12]
    454c:	e5933010 	ldr	r3, [r3, #16]
    4550:	e1a00002 	mov	r0, r2
    4554:	e3a01000 	mov	r1, #0
    4558:	e1a02003 	mov	r2, r3
    455c:	ebfff55a 	bl	1acc <_init+0x278>
    4560:	e51b300c 	ldr	r3, [fp, #-12]
    4564:	e3a02000 	mov	r2, #0
    4568:	e5832034 	str	r2, [r3, #52]	; 0x34
    456c:	e51b300c 	ldr	r3, [fp, #-12]
    4570:	e3a02000 	mov	r2, #0
    4574:	e5832000 	str	r2, [r3]
    4578:	e59f30d4 	ldr	r3, [pc, #212]	; 4654 <forked_child_init+0x150>
    457c:	e08f3003 	add	r3, pc, r3
    4580:	e1a00003 	mov	r0, r3
    4584:	e3a01000 	mov	r1, #0
    4588:	ebfff4e6 	bl	1928 <_init+0xd4>
    458c:	ea000022 	b	461c <forked_child_init+0x118>
    4590:	e51b3008 	ldr	r3, [fp, #-8]
    4594:	e5932000 	ldr	r2, [r3]
    4598:	e51b300c 	ldr	r3, [fp, #-12]
    459c:	e1520003 	cmp	r2, r3
    45a0:	1a000004 	bne	45b8 <forked_child_init+0xb4>
    45a4:	e51b3008 	ldr	r3, [fp, #-8]
    45a8:	e5933000 	ldr	r3, [r3]
    45ac:	e2833004 	add	r3, r3, #4
    45b0:	e50b3008 	str	r3, [fp, #-8]
    45b4:	ea000018 	b	461c <forked_child_init+0x118>
    45b8:	e51b3008 	ldr	r3, [fp, #-8]
    45bc:	e5933000 	ldr	r3, [r3]
    45c0:	e1a02003 	mov	r2, r3
    45c4:	e59f308c 	ldr	r3, [pc, #140]	; 4658 <forked_child_init+0x154>
    45c8:	e08f3003 	add	r3, pc, r3
    45cc:	e5933000 	ldr	r3, [r3]
    45d0:	e0632002 	rsb	r2, r3, r2
    45d4:	e59f3080 	ldr	r3, [pc, #128]	; 465c <forked_child_init+0x158>
    45d8:	e08f3003 	add	r3, pc, r3
    45dc:	e5933000 	ldr	r3, [r3]
    45e0:	e1520003 	cmp	r2, r3
    45e4:	2a000008 	bcs	460c <forked_child_init+0x108>
    45e8:	e51b3008 	ldr	r3, [fp, #-8]
    45ec:	e5933000 	ldr	r3, [r3]
    45f0:	e1a00003 	mov	r0, r3
    45f4:	ebfffe04 	bl	3e0c <cleanup_buffer>
    45f8:	e51b3008 	ldr	r3, [fp, #-8]
    45fc:	e5933000 	ldr	r3, [r3]
    4600:	e2833004 	add	r3, r3, #4
    4604:	e50b3008 	str	r3, [fp, #-8]
    4608:	ea000003 	b	461c <forked_child_init+0x118>
    460c:	e51b3008 	ldr	r3, [fp, #-8]
    4610:	e5933000 	ldr	r3, [r3]
    4614:	e1a00003 	mov	r0, r3
    4618:	ebfffdfb 	bl	3e0c <cleanup_buffer>
    461c:	e51b3008 	ldr	r3, [fp, #-8]
    4620:	e5933000 	ldr	r3, [r3]
    4624:	e3530000 	cmp	r3, #0
    4628:	1affffd8 	bne	4590 <forked_child_init+0x8c>
    462c:	e59f302c 	ldr	r3, [pc, #44]	; 4660 <forked_child_init+0x15c>
    4630:	e08f3003 	add	r3, pc, r3
    4634:	e5933000 	ldr	r3, [r3]
    4638:	e3530000 	cmp	r3, #0
    463c:	0a000000 	beq	4644 <forked_child_init+0x140>
    4640:	ebffff90 	bl	4488 <spawn_printer_thread>
    4644:	e24bd004 	sub	sp, fp, #4
    4648:	e8bd8800 	pop	{fp, pc}
    464c:	0000be54 	andeq	fp, r0, r4, asr lr
    4650:	0000bdd4 	ldrdeq	fp, [r0], -r4
    4654:	0000bda0 	andeq	fp, r0, r0, lsr #27
    4658:	0000bdb4 			; <UNDEFINED> instruction: 0x0000bdb4
    465c:	0000bda8 	andeq	fp, r0, r8, lsr #27
    4660:	0000bd3c 	andeq	fp, r0, ip, lsr sp

00004664 <__rt_print_init>:
    4664:	e92d4810 	push	{r4, fp, lr}
    4668:	e28db008 	add	fp, sp, #8
    466c:	e24dd01c 	sub	sp, sp, #28
    4670:	e59f4564 	ldr	r4, [pc, #1380]	; 4bdc <__rt_print_init+0x578>
    4674:	e08f4004 	add	r4, pc, r4
    4678:	e59f3560 	ldr	r3, [pc, #1376]	; 4be0 <__rt_print_init+0x57c>
    467c:	e08f3003 	add	r3, pc, r3
    4680:	e3a02000 	mov	r2, #0
    4684:	e5832000 	str	r2, [r3]
    4688:	e59f3554 	ldr	r3, [pc, #1364]	; 4be4 <__rt_print_init+0x580>
    468c:	e08f3003 	add	r3, pc, r3
    4690:	e3a02000 	mov	r2, #0
    4694:	e5832000 	str	r2, [r3]
    4698:	e59f3548 	ldr	r3, [pc, #1352]	; 4be8 <__rt_print_init+0x584>
    469c:	e08f3003 	add	r3, pc, r3
    46a0:	e3a02000 	mov	r2, #0
    46a4:	e5832000 	str	r2, [r3]
    46a8:	e59f353c 	ldr	r3, [pc, #1340]	; 4bec <__rt_print_init+0x588>
    46ac:	e08f3003 	add	r3, pc, r3
    46b0:	e3a02901 	mov	r2, #16384	; 0x4000
    46b4:	e5832000 	str	r2, [r3]
    46b8:	e59f3530 	ldr	r3, [pc, #1328]	; 4bf0 <__rt_print_init+0x58c>
    46bc:	e08f3003 	add	r3, pc, r3
    46c0:	e1a00003 	mov	r0, r3
    46c4:	ebfff4d0 	bl	1a0c <_init+0x1b8>
    46c8:	e50b0020 	str	r0, [fp, #-32]
    46cc:	e51b3020 	ldr	r3, [fp, #-32]
    46d0:	e3530000 	cmp	r3, #0
    46d4:	0a000023 	beq	4768 <__rt_print_init+0x104>
    46d8:	ebfff4f8 	bl	1ac0 <_init+0x26c>
    46dc:	e1a03000 	mov	r3, r0
    46e0:	e3a02000 	mov	r2, #0
    46e4:	e5832000 	str	r2, [r3]
    46e8:	e51b0020 	ldr	r0, [fp, #-32]
    46ec:	e3a01000 	mov	r1, #0
    46f0:	e3a0200a 	mov	r2, #10
    46f4:	ebfff46a 	bl	18a4 <_init+0x50>
    46f8:	e1a03000 	mov	r3, r0
    46fc:	e1a02003 	mov	r2, r3
    4700:	e59f34ec 	ldr	r3, [pc, #1260]	; 4bf4 <__rt_print_init+0x590>
    4704:	e08f3003 	add	r3, pc, r3
    4708:	e5832000 	str	r2, [r3]
    470c:	ebfff4eb 	bl	1ac0 <_init+0x26c>
    4710:	e1a03000 	mov	r3, r0
    4714:	e5933000 	ldr	r3, [r3]
    4718:	e3530000 	cmp	r3, #0
    471c:	1a000004 	bne	4734 <__rt_print_init+0xd0>
    4720:	e59f34d0 	ldr	r3, [pc, #1232]	; 4bf8 <__rt_print_init+0x594>
    4724:	e08f3003 	add	r3, pc, r3
    4728:	e5933000 	ldr	r3, [r3]
    472c:	e35300ff 	cmp	r3, #255	; 0xff
    4730:	8a00000c 	bhi	4768 <__rt_print_init+0x104>
    4734:	e59f34c0 	ldr	r3, [pc, #1216]	; 4bfc <__rt_print_init+0x598>
    4738:	e7943003 	ldr	r3, [r4, r3]
    473c:	e5933000 	ldr	r3, [r3]
    4740:	e1a00003 	mov	r0, r3
    4744:	e59f34b4 	ldr	r3, [pc, #1204]	; 4c00 <__rt_print_init+0x59c>
    4748:	e08f3003 	add	r3, pc, r3
    474c:	e1a01003 	mov	r1, r3
    4750:	e59f34ac 	ldr	r3, [pc, #1196]	; 4c04 <__rt_print_init+0x5a0>
    4754:	e08f3003 	add	r3, pc, r3
    4758:	e1a02003 	mov	r2, r3
    475c:	ebfff4cb 	bl	1a90 <_init+0x23c>
    4760:	e3a00001 	mov	r0, #1
    4764:	ebfff4bd 	bl	1a60 <_init+0x20c>
    4768:	e3a02064 	mov	r2, #100	; 0x64
    476c:	e3a03000 	mov	r3, #0
    4770:	e50b2014 	str	r2, [fp, #-20]
    4774:	e50b3010 	str	r3, [fp, #-16]
    4778:	e59f3488 	ldr	r3, [pc, #1160]	; 4c08 <__rt_print_init+0x5a4>
    477c:	e08f3003 	add	r3, pc, r3
    4780:	e1a00003 	mov	r0, r3
    4784:	ebfff4a0 	bl	1a0c <_init+0x1b8>
    4788:	e50b0020 	str	r0, [fp, #-32]
    478c:	e51b3020 	ldr	r3, [fp, #-32]
    4790:	e3530000 	cmp	r3, #0
    4794:	0a00001d 	beq	4810 <__rt_print_init+0x1ac>
    4798:	ebfff4c8 	bl	1ac0 <_init+0x26c>
    479c:	e1a03000 	mov	r3, r0
    47a0:	e3a02000 	mov	r2, #0
    47a4:	e5832000 	str	r2, [r3]
    47a8:	e51b0020 	ldr	r0, [fp, #-32]
    47ac:	e3a01000 	mov	r1, #0
    47b0:	e3a0200a 	mov	r2, #10
    47b4:	ebfff488 	bl	19dc <_init+0x188>
    47b8:	e1a02000 	mov	r2, r0
    47bc:	e1a03001 	mov	r3, r1
    47c0:	e50b2014 	str	r2, [fp, #-20]
    47c4:	e50b3010 	str	r3, [fp, #-16]
    47c8:	ebfff4bc 	bl	1ac0 <_init+0x26c>
    47cc:	e1a03000 	mov	r3, r0
    47d0:	e5933000 	ldr	r3, [r3]
    47d4:	e3530000 	cmp	r3, #0
    47d8:	0a00000c 	beq	4810 <__rt_print_init+0x1ac>
    47dc:	e59f3418 	ldr	r3, [pc, #1048]	; 4bfc <__rt_print_init+0x598>
    47e0:	e7943003 	ldr	r3, [r4, r3]
    47e4:	e5933000 	ldr	r3, [r3]
    47e8:	e1a00003 	mov	r0, r3
    47ec:	e59f3418 	ldr	r3, [pc, #1048]	; 4c0c <__rt_print_init+0x5a8>
    47f0:	e08f3003 	add	r3, pc, r3
    47f4:	e1a01003 	mov	r1, r3
    47f8:	e59f3410 	ldr	r3, [pc, #1040]	; 4c10 <__rt_print_init+0x5ac>
    47fc:	e08f3003 	add	r3, pc, r3
    4800:	e1a02003 	mov	r2, r3
    4804:	ebfff4a1 	bl	1a90 <_init+0x23c>
    4808:	e3a00001 	mov	r0, #1
    480c:	ebfff493 	bl	1a60 <_init+0x20c>
    4810:	e24b3014 	sub	r3, fp, #20
    4814:	e893000c 	ldm	r3, {r2, r3}
    4818:	e1a00002 	mov	r0, r2
    481c:	e1a01003 	mov	r1, r3
    4820:	e3a02ffa 	mov	r2, #1000	; 0x3e8
    4824:	e3a03000 	mov	r3, #0
    4828:	eb000685 	bl	6244 <__aeabi_uldivmod>
    482c:	e1a02000 	mov	r2, r0
    4830:	e1a03001 	mov	r3, r1
    4834:	e59f33d8 	ldr	r3, [pc, #984]	; 4c14 <__rt_print_init+0x5b0>
    4838:	e08f3003 	add	r3, pc, r3
    483c:	e5832000 	str	r2, [r3]
    4840:	e24b3014 	sub	r3, fp, #20
    4844:	e893000c 	ldm	r3, {r2, r3}
    4848:	e1a00002 	mov	r0, r2
    484c:	e1a01003 	mov	r1, r3
    4850:	e3a02ffa 	mov	r2, #1000	; 0x3e8
    4854:	e3a03000 	mov	r3, #0
    4858:	eb000679 	bl	6244 <__aeabi_uldivmod>
    485c:	e1a01002 	mov	r1, r2
    4860:	e1a02001 	mov	r2, r1
    4864:	e1a02282 	lsl	r2, r2, #5
    4868:	e0612002 	rsb	r2, r1, r2
    486c:	e1a03302 	lsl	r3, r2, #6
    4870:	e0623003 	rsb	r3, r2, r3
    4874:	e1a03183 	lsl	r3, r3, #3
    4878:	e0833001 	add	r3, r3, r1
    487c:	e1a03303 	lsl	r3, r3, #6
    4880:	e1a02003 	mov	r2, r3
    4884:	e59f338c 	ldr	r3, [pc, #908]	; 4c18 <__rt_print_init+0x5b4>
    4888:	e08f3003 	add	r3, pc, r3
    488c:	e5832004 	str	r2, [r3, #4]
    4890:	e3a03004 	mov	r3, #4
    4894:	e50b3018 	str	r3, [fp, #-24]
    4898:	e59f337c 	ldr	r3, [pc, #892]	; 4c1c <__rt_print_init+0x5b8>
    489c:	e08f3003 	add	r3, pc, r3
    48a0:	e1a00003 	mov	r0, r3
    48a4:	ebfff458 	bl	1a0c <_init+0x1b8>
    48a8:	e50b0020 	str	r0, [fp, #-32]
    48ac:	e51b3020 	ldr	r3, [fp, #-32]
    48b0:	e3530000 	cmp	r3, #0
    48b4:	0a00001a 	beq	4924 <__rt_print_init+0x2c0>
    48b8:	ebfff480 	bl	1ac0 <_init+0x26c>
    48bc:	e1a03000 	mov	r3, r0
    48c0:	e3a02000 	mov	r2, #0
    48c4:	e5832000 	str	r2, [r3]
    48c8:	e51b0020 	ldr	r0, [fp, #-32]
    48cc:	e3a01000 	mov	r1, #0
    48d0:	e3a02000 	mov	r2, #0
    48d4:	ebfff464 	bl	1a6c <_init+0x218>
    48d8:	e50b0018 	str	r0, [fp, #-24]
    48dc:	ebfff477 	bl	1ac0 <_init+0x26c>
    48e0:	e1a03000 	mov	r3, r0
    48e4:	e5933000 	ldr	r3, [r3]
    48e8:	e3530000 	cmp	r3, #0
    48ec:	0a00000c 	beq	4924 <__rt_print_init+0x2c0>
    48f0:	e59f3304 	ldr	r3, [pc, #772]	; 4bfc <__rt_print_init+0x598>
    48f4:	e7943003 	ldr	r3, [r4, r3]
    48f8:	e5933000 	ldr	r3, [r3]
    48fc:	e1a00003 	mov	r0, r3
    4900:	e59f3318 	ldr	r3, [pc, #792]	; 4c20 <__rt_print_init+0x5bc>
    4904:	e08f3003 	add	r3, pc, r3
    4908:	e1a01003 	mov	r1, r3
    490c:	e59f3310 	ldr	r3, [pc, #784]	; 4c24 <__rt_print_init+0x5c0>
    4910:	e08f3003 	add	r3, pc, r3
    4914:	e1a02003 	mov	r2, r3
    4918:	ebfff45c 	bl	1a90 <_init+0x23c>
    491c:	e3a00001 	mov	r0, #1
    4920:	ebfff44e 	bl	1a60 <_init+0x20c>
    4924:	e51b3018 	ldr	r3, [fp, #-24]
    4928:	e283301f 	add	r3, r3, #31
    492c:	e1a022a3 	lsr	r2, r3, #5
    4930:	e59f32f0 	ldr	r3, [pc, #752]	; 4c28 <__rt_print_init+0x5c4>
    4934:	e08f3003 	add	r3, pc, r3
    4938:	e5832000 	str	r2, [r3]
    493c:	e59f32e8 	ldr	r3, [pc, #744]	; 4c2c <__rt_print_init+0x5c8>
    4940:	e08f3003 	add	r3, pc, r3
    4944:	e5933000 	ldr	r3, [r3]
    4948:	e3530000 	cmp	r3, #0
    494c:	0a000088 	beq	4b74 <__rt_print_init+0x510>
    4950:	e59f32d8 	ldr	r3, [pc, #728]	; 4c30 <__rt_print_init+0x5cc>
    4954:	e08f3003 	add	r3, pc, r3
    4958:	e5933000 	ldr	r3, [r3]
    495c:	e1a03103 	lsl	r3, r3, #2
    4960:	e1a00003 	mov	r0, r3
    4964:	ebfff42b 	bl	1a18 <_init+0x1c4>
    4968:	e1a03000 	mov	r3, r0
    496c:	e1a02003 	mov	r2, r3
    4970:	e59f32bc 	ldr	r3, [pc, #700]	; 4c34 <__rt_print_init+0x5d0>
    4974:	e08f3003 	add	r3, pc, r3
    4978:	e5832000 	str	r2, [r3]
    497c:	e59f32b4 	ldr	r3, [pc, #692]	; 4c38 <__rt_print_init+0x5d4>
    4980:	e08f3003 	add	r3, pc, r3
    4984:	e5933000 	ldr	r3, [r3]
    4988:	e3530000 	cmp	r3, #0
    498c:	1a00000a 	bne	49bc <__rt_print_init+0x358>
    4990:	e59f3264 	ldr	r3, [pc, #612]	; 4bfc <__rt_print_init+0x598>
    4994:	e7943003 	ldr	r3, [r4, r3]
    4998:	e5933000 	ldr	r3, [r3]
    499c:	e59f2298 	ldr	r2, [pc, #664]	; 4c3c <__rt_print_init+0x5d8>
    49a0:	e08f2002 	add	r2, pc, r2
    49a4:	e1a00002 	mov	r0, r2
    49a8:	e3a01001 	mov	r1, #1
    49ac:	e3a02023 	mov	r2, #35	; 0x23
    49b0:	ebfff400 	bl	19b8 <_init+0x164>
    49b4:	e3a00001 	mov	r0, #1
    49b8:	ebfff428 	bl	1a60 <_init+0x20c>
    49bc:	e59f327c 	ldr	r3, [pc, #636]	; 4c40 <__rt_print_init+0x5dc>
    49c0:	e08f3003 	add	r3, pc, r3
    49c4:	e5933000 	ldr	r3, [r3]
    49c8:	e2832038 	add	r2, r3, #56	; 0x38
    49cc:	e59f3270 	ldr	r3, [pc, #624]	; 4c44 <__rt_print_init+0x5e0>
    49d0:	e08f3003 	add	r3, pc, r3
    49d4:	e5832000 	str	r2, [r3]
    49d8:	e59f3268 	ldr	r3, [pc, #616]	; 4c48 <__rt_print_init+0x5e4>
    49dc:	e08f3003 	add	r3, pc, r3
    49e0:	e5933000 	ldr	r3, [r3]
    49e4:	e51b2018 	ldr	r2, [fp, #-24]
    49e8:	e0020293 	mul	r2, r3, r2
    49ec:	e59f3258 	ldr	r3, [pc, #600]	; 4c4c <__rt_print_init+0x5e8>
    49f0:	e08f3003 	add	r3, pc, r3
    49f4:	e5832000 	str	r2, [r3]
    49f8:	e59f3250 	ldr	r3, [pc, #592]	; 4c50 <__rt_print_init+0x5ec>
    49fc:	e08f3003 	add	r3, pc, r3
    4a00:	e5933000 	ldr	r3, [r3]
    4a04:	e1a00003 	mov	r0, r3
    4a08:	ebfff402 	bl	1a18 <_init+0x1c4>
    4a0c:	e1a03000 	mov	r3, r0
    4a10:	e1a02003 	mov	r2, r3
    4a14:	e59f3238 	ldr	r3, [pc, #568]	; 4c54 <__rt_print_init+0x5f0>
    4a18:	e08f3003 	add	r3, pc, r3
    4a1c:	e5832000 	str	r2, [r3]
    4a20:	e59f3230 	ldr	r3, [pc, #560]	; 4c58 <__rt_print_init+0x5f4>
    4a24:	e08f3003 	add	r3, pc, r3
    4a28:	e5933000 	ldr	r3, [r3]
    4a2c:	e3530000 	cmp	r3, #0
    4a30:	1a00000a 	bne	4a60 <__rt_print_init+0x3fc>
    4a34:	e59f31c0 	ldr	r3, [pc, #448]	; 4bfc <__rt_print_init+0x598>
    4a38:	e7943003 	ldr	r3, [r4, r3]
    4a3c:	e5933000 	ldr	r3, [r3]
    4a40:	e59f2214 	ldr	r2, [pc, #532]	; 4c5c <__rt_print_init+0x5f8>
    4a44:	e08f2002 	add	r2, pc, r2
    4a48:	e1a00002 	mov	r0, r2
    4a4c:	e3a01001 	mov	r1, #1
    4a50:	e3a02023 	mov	r2, #35	; 0x23
    4a54:	ebfff3d7 	bl	19b8 <_init+0x164>
    4a58:	e3a00001 	mov	r0, #1
    4a5c:	ebfff3ff 	bl	1a60 <_init+0x20c>
    4a60:	e3a03000 	mov	r3, #0
    4a64:	e50b301c 	str	r3, [fp, #-28]
    4a68:	ea00000b 	b	4a9c <__rt_print_init+0x438>
    4a6c:	e59f31ec 	ldr	r3, [pc, #492]	; 4c60 <__rt_print_init+0x5fc>
    4a70:	e08f3003 	add	r3, pc, r3
    4a74:	e5932000 	ldr	r2, [r3]
    4a78:	e51b301c 	ldr	r3, [fp, #-28]
    4a7c:	e1a03103 	lsl	r3, r3, #2
    4a80:	e0823003 	add	r3, r2, r3
    4a84:	e1a00003 	mov	r0, r3
    4a88:	e3e01000 	mvn	r1, #0
    4a8c:	ebfff87d 	bl	2c88 <xnarch_atomic_set>
    4a90:	e51b301c 	ldr	r3, [fp, #-28]
    4a94:	e2833001 	add	r3, r3, #1
    4a98:	e50b301c 	str	r3, [fp, #-28]
    4a9c:	e51b3018 	ldr	r3, [fp, #-24]
    4aa0:	e1a022a3 	lsr	r2, r3, #5
    4aa4:	e51b301c 	ldr	r3, [fp, #-28]
    4aa8:	e1520003 	cmp	r2, r3
    4aac:	8affffee 	bhi	4a6c <__rt_print_init+0x408>
    4ab0:	e51b3018 	ldr	r3, [fp, #-24]
    4ab4:	e203301f 	and	r3, r3, #31
    4ab8:	e3530000 	cmp	r3, #0
    4abc:	0a00000d 	beq	4af8 <__rt_print_init+0x494>
    4ac0:	e59f319c 	ldr	r3, [pc, #412]	; 4c64 <__rt_print_init+0x600>
    4ac4:	e08f3003 	add	r3, pc, r3
    4ac8:	e5932000 	ldr	r2, [r3]
    4acc:	e51b301c 	ldr	r3, [fp, #-28]
    4ad0:	e1a03103 	lsl	r3, r3, #2
    4ad4:	e0822003 	add	r2, r2, r3
    4ad8:	e51b3018 	ldr	r3, [fp, #-24]
    4adc:	e203301f 	and	r3, r3, #31
    4ae0:	e3a01001 	mov	r1, #1
    4ae4:	e1a03311 	lsl	r3, r1, r3
    4ae8:	e2433001 	sub	r3, r3, #1
    4aec:	e1a00002 	mov	r0, r2
    4af0:	e1a01003 	mov	r1, r3
    4af4:	ebfff863 	bl	2c88 <xnarch_atomic_set>
    4af8:	e3a03000 	mov	r3, #0
    4afc:	e50b301c 	str	r3, [fp, #-28]
    4b00:	ea000016 	b	4b60 <__rt_print_init+0x4fc>
    4b04:	e59f315c 	ldr	r3, [pc, #348]	; 4c68 <__rt_print_init+0x604>
    4b08:	e08f3003 	add	r3, pc, r3
    4b0c:	e5933000 	ldr	r3, [r3]
    4b10:	e51b201c 	ldr	r2, [fp, #-28]
    4b14:	e0020293 	mul	r2, r3, r2
    4b18:	e59f314c 	ldr	r3, [pc, #332]	; 4c6c <__rt_print_init+0x608>
    4b1c:	e08f3003 	add	r3, pc, r3
    4b20:	e5933000 	ldr	r3, [r3]
    4b24:	e0823003 	add	r3, r2, r3
    4b28:	e50b3024 	str	r3, [fp, #-36]	; 0x24
    4b2c:	e51b3024 	ldr	r3, [fp, #-36]	; 0x24
    4b30:	e2832038 	add	r2, r3, #56	; 0x38
    4b34:	e51b3024 	ldr	r3, [fp, #-36]	; 0x24
    4b38:	e583200c 	str	r2, [r3, #12]
    4b3c:	e59f312c 	ldr	r3, [pc, #300]	; 4c70 <__rt_print_init+0x60c>
    4b40:	e08f3003 	add	r3, pc, r3
    4b44:	e5933000 	ldr	r3, [r3]
    4b48:	e51b0024 	ldr	r0, [fp, #-36]	; 0x24
    4b4c:	e1a01003 	mov	r1, r3
    4b50:	ebfffb31 	bl	381c <rt_print_init_inner>
    4b54:	e51b301c 	ldr	r3, [fp, #-28]
    4b58:	e2833001 	add	r3, r3, #1
    4b5c:	e50b301c 	str	r3, [fp, #-28]
    4b60:	e51b201c 	ldr	r2, [fp, #-28]
    4b64:	e51b3018 	ldr	r3, [fp, #-24]
    4b68:	e1520003 	cmp	r2, r3
    4b6c:	3affffe4 	bcc	4b04 <__rt_print_init+0x4a0>
    4b70:	ea000000 	b	4b78 <__rt_print_init+0x514>
    4b74:	e1a00000 	nop			; (mov r0, r0)
    4b78:	e59f30f4 	ldr	r3, [pc, #244]	; 4c74 <__rt_print_init+0x610>
    4b7c:	e08f3003 	add	r3, pc, r3
    4b80:	e1a00003 	mov	r0, r3
    4b84:	e3a01000 	mov	r1, #0
    4b88:	ebfff366 	bl	1928 <_init+0xd4>
    4b8c:	e59f30e4 	ldr	r3, [pc, #228]	; 4c78 <__rt_print_init+0x614>
    4b90:	e08f3003 	add	r3, pc, r3
    4b94:	e1a00003 	mov	r0, r3
    4b98:	e59f30dc 	ldr	r3, [pc, #220]	; 4c7c <__rt_print_init+0x618>
    4b9c:	e08f3003 	add	r3, pc, r3
    4ba0:	e1a01003 	mov	r1, r3
    4ba4:	ebfff36e 	bl	1964 <_init+0x110>
    4ba8:	e59f30d0 	ldr	r3, [pc, #208]	; 4c80 <__rt_print_init+0x61c>
    4bac:	e08f3003 	add	r3, pc, r3
    4bb0:	e1a00003 	mov	r0, r3
    4bb4:	e3a01000 	mov	r1, #0
    4bb8:	ebfff366 	bl	1958 <_init+0x104>
    4bbc:	e3a00000 	mov	r0, #0
    4bc0:	e3a01000 	mov	r1, #0
    4bc4:	e59f30b8 	ldr	r3, [pc, #184]	; 4c84 <__rt_print_init+0x620>
    4bc8:	e08f3003 	add	r3, pc, r3
    4bcc:	e1a02003 	mov	r2, r3
    4bd0:	eb000512 	bl	6020 <__pthread_atfork>
    4bd4:	e24bd008 	sub	sp, fp, #8
    4bd8:	e8bd8810 	pop	{r4, fp, pc}
    4bdc:	0000bab4 			; <UNDEFINED> instruction: 0x0000bab4
    4be0:	0000bc84 	andeq	fp, r0, r4, lsl #25
    4be4:	0000bc7c 	andeq	fp, r0, ip, ror ip
    4be8:	0000bc7c 	andeq	fp, r0, ip, ror ip
    4bec:	0000bc60 	andeq	fp, r0, r0, ror #24
    4bf0:	00003820 	andeq	r3, r0, r0, lsr #16
    4bf4:	0000bc08 	andeq	fp, r0, r8, lsl #24
    4bf8:	0000bbe8 	andeq	fp, r0, r8, ror #23
    4bfc:	00000158 	andeq	r0, r0, r8, asr r1
    4c00:	000037a4 	andeq	r3, r0, r4, lsr #15
    4c04:	00003788 	andeq	r3, r0, r8, lsl #15
    4c08:	0000377c 	andeq	r3, r0, ip, ror r7
    4c0c:	000036fc 	strdeq	r3, [r0], -ip
    4c10:	000036fc 	strdeq	r3, [r0], -ip
    4c14:	0000bad8 	ldrdeq	fp, [r0], -r8
    4c18:	0000ba88 	andeq	fp, r0, r8, lsl #21
    4c1c:	0000366c 	andeq	r3, r0, ip, ror #12
    4c20:	000035e8 	andeq	r3, r0, r8, ror #11
    4c24:	000035f8 	strdeq	r3, [r0], -r8
    4c28:	0000ba40 	andeq	fp, r0, r0, asr #20
    4c2c:	0000ba34 	andeq	fp, r0, r4, lsr sl
    4c30:	0000ba20 	andeq	fp, r0, r0, lsr #20
    4c34:	0000b9fc 	strdeq	fp, [r0], -ip
    4c38:	0000b9f0 	strdeq	fp, [r0], -r0
    4c3c:	00003580 	andeq	r3, r0, r0, lsl #11
    4c40:	0000b94c 	andeq	fp, r0, ip, asr #18
    4c44:	0000b9a8 	andeq	fp, r0, r8, lsr #19
    4c48:	0000b99c 	muleq	r0, ip, r9
    4c4c:	0000b990 	muleq	r0, r0, r9
    4c50:	0000b984 	andeq	fp, r0, r4, lsl #19
    4c54:	0000b964 	andeq	fp, r0, r4, ror #18
    4c58:	0000b958 	andeq	fp, r0, r8, asr r9
    4c5c:	000034dc 	ldrdeq	r3, [r0], -ip
    4c60:	0000b900 	andeq	fp, r0, r0, lsl #18
    4c64:	0000b8ac 	andeq	fp, r0, ip, lsr #17
    4c68:	0000b870 	andeq	fp, r0, r0, ror r8
    4c6c:	0000b860 	andeq	fp, r0, r0, ror #16
    4c70:	0000b7cc 	andeq	fp, r0, ip, asr #15
    4c74:	0000b7a0 	andeq	fp, r0, r0, lsr #15
    4c78:	0000b7d8 	ldrdeq	fp, [r0], -r8
    4c7c:	fffff268 			; <UNDEFINED> instruction: 0xfffff268
    4c80:	0000b78c 	andeq	fp, r0, ip, lsl #15
    4c84:	fffff934 			; <UNDEFINED> instruction: 0xfffff934

00004c88 <__rt_print_exit>:
    4c88:	e92d4800 	push	{fp, lr}
    4c8c:	e28db004 	add	fp, sp, #4
    4c90:	e59f3038 	ldr	r3, [pc, #56]	; 4cd0 <__rt_print_exit+0x48>
    4c94:	e08f3003 	add	r3, pc, r3
    4c98:	e5933000 	ldr	r3, [r3]
    4c9c:	e3530000 	cmp	r3, #0
    4ca0:	0a000009 	beq	4ccc <__rt_print_exit+0x44>
    4ca4:	e59f3028 	ldr	r3, [pc, #40]	; 4cd4 <__rt_print_exit+0x4c>
    4ca8:	e08f3003 	add	r3, pc, r3
    4cac:	e1a00003 	mov	r0, r3
    4cb0:	e3a01000 	mov	r1, #0
    4cb4:	ebfff312 	bl	1904 <_init+0xb0>
    4cb8:	e59f3018 	ldr	r3, [pc, #24]	; 4cd8 <__rt_print_exit+0x50>
    4cbc:	e08f3003 	add	r3, pc, r3
    4cc0:	e1a00003 	mov	r0, r3
    4cc4:	e3a01000 	mov	r1, #0
    4cc8:	ebfff30d 	bl	1904 <_init+0xb0>
    4ccc:	e8bd8800 	pop	{fp, pc}
    4cd0:	0000b670 	andeq	fp, r0, r0, ror r6
    4cd4:	0000b668 	andeq	fp, r0, r8, ror #12
    4cd8:	0000b654 	andeq	fp, r0, r4, asr r6

00004cdc <xeno_map_heap>:
    4cdc:	e92d4800 	push	{fp, lr}
    4ce0:	e28db004 	add	fp, sp, #4
    4ce4:	e24dd020 	sub	sp, sp, #32
    4ce8:	e50b0018 	str	r0, [fp, #-24]
    4cec:	e59f30c4 	ldr	r3, [pc, #196]	; 4db8 <xeno_map_heap+0xdc>
    4cf0:	e08f3003 	add	r3, pc, r3
    4cf4:	e1a00003 	mov	r0, r3
    4cf8:	e3a01002 	mov	r1, #2
    4cfc:	e3a02000 	mov	r2, #0
    4d00:	ebfff353 	bl	1a54 <_init+0x200>
    4d04:	e50b0008 	str	r0, [fp, #-8]
    4d08:	e51b3008 	ldr	r3, [fp, #-8]
    4d0c:	e3530000 	cmp	r3, #0
    4d10:	aa000005 	bge	4d2c <xeno_map_heap+0x50>
    4d14:	e59f30a0 	ldr	r3, [pc, #160]	; 4dbc <xeno_map_heap+0xe0>
    4d18:	e08f3003 	add	r3, pc, r3
    4d1c:	e1a00003 	mov	r0, r3
    4d20:	ebfff318 	bl	1988 <_init+0x134>
    4d24:	e3e03000 	mvn	r3, #0
    4d28:	ea00001f 	b	4dac <xeno_map_heap+0xd0>
    4d2c:	e51b3018 	ldr	r3, [fp, #-24]
    4d30:	e5933000 	ldr	r3, [r3]
    4d34:	e51b0008 	ldr	r0, [fp, #-8]
    4d38:	e3a01000 	mov	r1, #0
    4d3c:	e1a02003 	mov	r2, r3
    4d40:	ebfff31f 	bl	19c4 <_init+0x170>
    4d44:	e50b000c 	str	r0, [fp, #-12]
    4d48:	e51b300c 	ldr	r3, [fp, #-12]
    4d4c:	e3530000 	cmp	r3, #0
    4d50:	0a000005 	beq	4d6c <xeno_map_heap+0x90>
    4d54:	e59f3064 	ldr	r3, [pc, #100]	; 4dc0 <xeno_map_heap+0xe4>
    4d58:	e08f3003 	add	r3, pc, r3
    4d5c:	e1a00003 	mov	r0, r3
    4d60:	ebfff308 	bl	1988 <_init+0x134>
    4d64:	e3e03000 	mvn	r3, #0
    4d68:	ea00000f 	b	4dac <xeno_map_heap+0xd0>
    4d6c:	e51b3018 	ldr	r3, [fp, #-24]
    4d70:	e5933004 	ldr	r3, [r3, #4]
    4d74:	e51b2018 	ldr	r2, [fp, #-24]
    4d78:	e5922008 	ldr	r2, [r2, #8]
    4d7c:	e51b1008 	ldr	r1, [fp, #-8]
    4d80:	e58d1000 	str	r1, [sp]
    4d84:	e58d2004 	str	r2, [sp, #4]
    4d88:	e3a00000 	mov	r0, #0
    4d8c:	e1a01003 	mov	r1, r3
    4d90:	e3a02003 	mov	r2, #3
    4d94:	e3a03001 	mov	r3, #1
    4d98:	ebfff339 	bl	1a84 <_init+0x230>
    4d9c:	e50b0010 	str	r0, [fp, #-16]
    4da0:	e51b0008 	ldr	r0, [fp, #-8]
    4da4:	ebfff399 	bl	1c10 <_init+0x3bc>
    4da8:	e51b3010 	ldr	r3, [fp, #-16]
    4dac:	e1a00003 	mov	r0, r3
    4db0:	e24bd004 	sub	sp, fp, #4
    4db4:	e8bd8800 	pop	{fp, pc}
    4db8:	00003258 	andeq	r3, r0, r8, asr r2
    4dbc:	0000323c 	andeq	r3, r0, ip, lsr r2
    4dc0:	0000320c 	andeq	r3, r0, ip, lsl #4

00004dc4 <map_sem_heap>:
    4dc4:	e92d4880 	push	{r7, fp, lr}
    4dc8:	e28db008 	add	fp, sp, #8
    4dcc:	e24dd034 	sub	sp, sp, #52	; 0x34
    4dd0:	e50b0038 	str	r0, [fp, #-56]	; 0x38
    4dd4:	e51b3038 	ldr	r3, [fp, #-56]	; 0x38
    4dd8:	e3530000 	cmp	r3, #0
    4ddc:	0a000001 	beq	4de8 <map_sem_heap+0x24>
    4de0:	e24b3030 	sub	r3, fp, #48	; 0x30
    4de4:	ea000001 	b	4df0 <map_sem_heap+0x2c>
    4de8:	e59f3088 	ldr	r3, [pc, #136]	; 4e78 <map_sem_heap+0xb4>
    4dec:	e08f3003 	add	r3, pc, r3
    4df0:	e50b3010 	str	r3, [fp, #-16]
    4df4:	e59f3080 	ldr	r3, [pc, #128]	; 4e7c <map_sem_heap+0xb8>
    4df8:	e50b3014 	str	r3, [fp, #-20]
    4dfc:	e51b3010 	ldr	r3, [fp, #-16]
    4e00:	e50b3018 	str	r3, [fp, #-24]
    4e04:	e51b3038 	ldr	r3, [fp, #-56]	; 0x38
    4e08:	e50b301c 	str	r3, [fp, #-28]
    4e0c:	e51b0014 	ldr	r0, [fp, #-20]
    4e10:	e51b1018 	ldr	r1, [fp, #-24]
    4e14:	e51b201c 	ldr	r2, [fp, #-28]
    4e18:	e59f7060 	ldr	r7, [pc, #96]	; 4e80 <map_sem_heap+0xbc>
    4e1c:	ef000000 	svc	0x00000000
    4e20:	e1a03000 	mov	r3, r0
    4e24:	e50b3020 	str	r3, [fp, #-32]
    4e28:	e51b3020 	ldr	r3, [fp, #-32]
    4e2c:	e3530000 	cmp	r3, #0
    4e30:	aa00000a 	bge	4e60 <map_sem_heap+0x9c>
    4e34:	ebfff321 	bl	1ac0 <_init+0x26c>
    4e38:	e1a03000 	mov	r3, r0
    4e3c:	e51b2020 	ldr	r2, [fp, #-32]
    4e40:	e2622000 	rsb	r2, r2, #0
    4e44:	e5832000 	str	r2, [r3]
    4e48:	e59f3034 	ldr	r3, [pc, #52]	; 4e84 <map_sem_heap+0xc0>
    4e4c:	e08f3003 	add	r3, pc, r3
    4e50:	e1a00003 	mov	r0, r3
    4e54:	ebfff2cb 	bl	1988 <_init+0x134>
    4e58:	e3e03000 	mvn	r3, #0
    4e5c:	ea000002 	b	4e6c <map_sem_heap+0xa8>
    4e60:	e51b0010 	ldr	r0, [fp, #-16]
    4e64:	ebfff294 	bl	18bc <_init+0x68>
    4e68:	e1a03000 	mov	r3, r0
    4e6c:	e1a00003 	mov	r0, r3
    4e70:	e24bd008 	sub	sp, fp, #8
    4e74:	e8bd8880 	pop	{r7, fp, pc}
    4e78:	0000b5b0 			; <UNDEFINED> instruction: 0x0000b5b0
    4e7c:	0700022b 	streq	r0, [r0, -fp, lsr #4]
    4e80:	000f0042 	andeq	r0, pc, r2, asr #32
    4e84:	00003128 	andeq	r3, r0, r8, lsr #2

00004e88 <unmap_on_fork>:
    4e88:	e92d4810 	push	{r4, fp, lr}
    4e8c:	e28db008 	add	fp, sp, #8
    4e90:	e24dd014 	sub	sp, sp, #20
    4e94:	e59f40b0 	ldr	r4, [pc, #176]	; 4f4c <unmap_on_fork+0xc4>
    4e98:	e08f4004 	add	r4, pc, r4
    4e9c:	e59f30ac 	ldr	r3, [pc, #172]	; 4f50 <unmap_on_fork+0xc8>
    4ea0:	e7943003 	ldr	r3, [r4, r3]
    4ea4:	e5933000 	ldr	r3, [r3]
    4ea8:	e1a02003 	mov	r2, r3
    4eac:	e59f30a0 	ldr	r3, [pc, #160]	; 4f54 <unmap_on_fork+0xcc>
    4eb0:	e08f3003 	add	r3, pc, r3
    4eb4:	e5933004 	ldr	r3, [r3, #4]
    4eb8:	e3e01000 	mvn	r1, #0
    4ebc:	e58d1000 	str	r1, [sp]
    4ec0:	e3a01000 	mov	r1, #0
    4ec4:	e58d1004 	str	r1, [sp, #4]
    4ec8:	e1a00002 	mov	r0, r2
    4ecc:	e1a01003 	mov	r1, r3
    4ed0:	e3a02000 	mov	r2, #0
    4ed4:	e3a03032 	mov	r3, #50	; 0x32
    4ed8:	ebfff2e9 	bl	1a84 <_init+0x230>
    4edc:	e50b0010 	str	r0, [fp, #-16]
    4ee0:	e59f3068 	ldr	r3, [pc, #104]	; 4f50 <unmap_on_fork+0xc8>
    4ee4:	e7943003 	ldr	r3, [r4, r3]
    4ee8:	e5933000 	ldr	r3, [r3]
    4eec:	e1a02003 	mov	r2, r3
    4ef0:	e51b3010 	ldr	r3, [fp, #-16]
    4ef4:	e1520003 	cmp	r2, r3
    4ef8:	0a000009 	beq	4f24 <unmap_on_fork+0x9c>
    4efc:	e59f304c 	ldr	r3, [pc, #76]	; 4f50 <unmap_on_fork+0xc8>
    4f00:	e7943003 	ldr	r3, [r4, r3]
    4f04:	e5933000 	ldr	r3, [r3]
    4f08:	e1a02003 	mov	r2, r3
    4f0c:	e59f3044 	ldr	r3, [pc, #68]	; 4f58 <unmap_on_fork+0xd0>
    4f10:	e08f3003 	add	r3, pc, r3
    4f14:	e5933004 	ldr	r3, [r3, #4]
    4f18:	e1a00002 	mov	r0, r2
    4f1c:	e1a01003 	mov	r1, r3
    4f20:	ebfff307 	bl	1b44 <_init+0x2f0>
    4f24:	e59f3024 	ldr	r3, [pc, #36]	; 4f50 <unmap_on_fork+0xc8>
    4f28:	e7943003 	ldr	r3, [r4, r3]
    4f2c:	e3a02000 	mov	r2, #0
    4f30:	e5832000 	str	r2, [r3]
    4f34:	e59f3020 	ldr	r3, [pc, #32]	; 4f5c <unmap_on_fork+0xd4>
    4f38:	e08f3003 	add	r3, pc, r3
    4f3c:	e3a02000 	mov	r2, #0
    4f40:	e5832000 	str	r2, [r3]
    4f44:	e24bd008 	sub	sp, fp, #8
    4f48:	e8bd8810 	pop	{r4, fp, pc}
    4f4c:	0000b290 	muleq	r0, r0, r2
    4f50:	00000178 	andeq	r0, r0, r8, ror r1
    4f54:	0000b4ec 	andeq	fp, r0, ip, ror #9
    4f58:	0000b48c 	andeq	fp, r0, ip, lsl #9
    4f5c:	0000b460 	andeq	fp, r0, r0, ror #8

00004f60 <xeno_init_vdso>:
    4f60:	e92d4880 	push	{r7, fp, lr}
    4f64:	e28db008 	add	fp, sp, #8
    4f68:	e24dd024 	sub	sp, sp, #36	; 0x24
    4f6c:	e59f3094 	ldr	r3, [pc, #148]	; 5008 <xeno_init_vdso+0xa8>
    4f70:	e08f3003 	add	r3, pc, r3
    4f74:	e59f2090 	ldr	r2, [pc, #144]	; 500c <xeno_init_vdso+0xac>
    4f78:	e50b2010 	str	r2, [fp, #-16]
    4f7c:	e3a02000 	mov	r2, #0
    4f80:	e50b2014 	str	r2, [fp, #-20]
    4f84:	e24b202c 	sub	r2, fp, #44	; 0x2c
    4f88:	e50b2018 	str	r2, [fp, #-24]
    4f8c:	e51b0010 	ldr	r0, [fp, #-16]
    4f90:	e51b1014 	ldr	r1, [fp, #-20]
    4f94:	e51b2018 	ldr	r2, [fp, #-24]
    4f98:	e59f7070 	ldr	r7, [pc, #112]	; 5010 <xeno_init_vdso+0xb0>
    4f9c:	ef000000 	svc	0x00000000
    4fa0:	e1a02000 	mov	r2, r0
    4fa4:	e50b201c 	str	r2, [fp, #-28]
    4fa8:	e51b201c 	ldr	r2, [fp, #-28]
    4fac:	e3520000 	cmp	r2, #0
    4fb0:	aa00000a 	bge	4fe0 <xeno_init_vdso+0x80>
    4fb4:	ebfff2c1 	bl	1ac0 <_init+0x26c>
    4fb8:	e1a03000 	mov	r3, r0
    4fbc:	e51b201c 	ldr	r2, [fp, #-28]
    4fc0:	e2622000 	rsb	r2, r2, #0
    4fc4:	e5832000 	str	r2, [r3]
    4fc8:	e59f3044 	ldr	r3, [pc, #68]	; 5014 <xeno_init_vdso+0xb4>
    4fcc:	e08f3003 	add	r3, pc, r3
    4fd0:	e1a00003 	mov	r0, r3
    4fd4:	ebfff26b 	bl	1988 <_init+0x134>
    4fd8:	e3a00001 	mov	r0, #1
    4fdc:	ebfff29f 	bl	1a60 <_init+0x20c>
    4fe0:	e59f2030 	ldr	r2, [pc, #48]	; 5018 <xeno_init_vdso+0xb8>
    4fe4:	e7932002 	ldr	r2, [r3, r2]
    4fe8:	e5921004 	ldr	r1, [r2, #4]
    4fec:	e51b2020 	ldr	r2, [fp, #-32]
    4ff0:	e0812002 	add	r2, r1, r2
    4ff4:	e59f1020 	ldr	r1, [pc, #32]	; 501c <xeno_init_vdso+0xbc>
    4ff8:	e7933001 	ldr	r3, [r3, r1]
    4ffc:	e5832000 	str	r2, [r3]
    5000:	e24bd008 	sub	sp, fp, #8
    5004:	e8bd8880 	pop	{r7, fp, pc}
    5008:	0000b1b8 			; <UNDEFINED> instruction: 0x0000b1b8
    500c:	0400022b 	streq	r0, [r0], #-555	; 0x22b
    5010:	000f0042 	andeq	r0, pc, r2, asr #32
    5014:	00002fc0 	andeq	r2, r0, r0, asr #31
    5018:	00000178 	andeq	r0, r0, r8, ror r1
    501c:	00000180 	andeq	r0, r0, r0, lsl #3

00005020 <xeno_init_private_heap>:
    5020:	e92d4818 	push	{r3, r4, fp, lr}
    5024:	e28db00c 	add	fp, sp, #12
    5028:	e59f404c 	ldr	r4, [pc, #76]	; 507c <xeno_init_private_heap+0x5c>
    502c:	e08f4004 	add	r4, pc, r4
    5030:	e3a00000 	mov	r0, #0
    5034:	ebffff62 	bl	4dc4 <map_sem_heap>
    5038:	e1a03000 	mov	r3, r0
    503c:	e1a02003 	mov	r2, r3
    5040:	e59f3038 	ldr	r3, [pc, #56]	; 5080 <xeno_init_private_heap+0x60>
    5044:	e7943003 	ldr	r3, [r4, r3]
    5048:	e5832000 	str	r2, [r3]
    504c:	e59f302c 	ldr	r3, [pc, #44]	; 5080 <xeno_init_private_heap+0x60>
    5050:	e7943003 	ldr	r3, [r4, r3]
    5054:	e5933000 	ldr	r3, [r3]
    5058:	e3730001 	cmn	r3, #1
    505c:	1a000005 	bne	5078 <xeno_init_private_heap+0x58>
    5060:	e59f301c 	ldr	r3, [pc, #28]	; 5084 <xeno_init_private_heap+0x64>
    5064:	e08f3003 	add	r3, pc, r3
    5068:	e1a00003 	mov	r0, r3
    506c:	ebfff245 	bl	1988 <_init+0x134>
    5070:	e3a00001 	mov	r0, #1
    5074:	ebfff279 	bl	1a60 <_init+0x20c>
    5078:	e8bd8818 	pop	{r3, r4, fp, pc}
    507c:	0000b0fc 	strdeq	fp, [r0], -ip
    5080:	00000178 	andeq	r0, r0, r8, ror r1
    5084:	00002f44 	andeq	r2, r0, r4, asr #30

00005088 <xeno_init_rest_once>:
    5088:	e92d4818 	push	{r3, r4, fp, lr}
    508c:	e28db00c 	add	fp, sp, #12
    5090:	e59f4068 	ldr	r4, [pc, #104]	; 5100 <xeno_init_rest_once+0x78>
    5094:	e08f4004 	add	r4, pc, r4
    5098:	e3a00000 	mov	r0, #0
    509c:	e3a01000 	mov	r1, #0
    50a0:	e59f305c 	ldr	r3, [pc, #92]	; 5104 <xeno_init_rest_once+0x7c>
    50a4:	e08f3003 	add	r3, pc, r3
    50a8:	e1a02003 	mov	r2, r3
    50ac:	eb0003db 	bl	6020 <__pthread_atfork>
    50b0:	e3a00001 	mov	r0, #1
    50b4:	ebffff42 	bl	4dc4 <map_sem_heap>
    50b8:	e1a03000 	mov	r3, r0
    50bc:	e1a02003 	mov	r2, r3
    50c0:	e59f3040 	ldr	r3, [pc, #64]	; 5108 <xeno_init_rest_once+0x80>
    50c4:	e7943003 	ldr	r3, [r4, r3]
    50c8:	e5832004 	str	r2, [r3, #4]
    50cc:	e59f3034 	ldr	r3, [pc, #52]	; 5108 <xeno_init_rest_once+0x80>
    50d0:	e7943003 	ldr	r3, [r4, r3]
    50d4:	e5933004 	ldr	r3, [r3, #4]
    50d8:	e3730001 	cmn	r3, #1
    50dc:	1a000005 	bne	50f8 <xeno_init_rest_once+0x70>
    50e0:	e59f3024 	ldr	r3, [pc, #36]	; 510c <xeno_init_rest_once+0x84>
    50e4:	e08f3003 	add	r3, pc, r3
    50e8:	e1a00003 	mov	r0, r3
    50ec:	ebfff225 	bl	1988 <_init+0x134>
    50f0:	e3a00001 	mov	r0, #1
    50f4:	ebfff259 	bl	1a60 <_init+0x20c>
    50f8:	ebffff98 	bl	4f60 <xeno_init_vdso>
    50fc:	e8bd8818 	pop	{r3, r4, fp, pc}
    5100:	0000b094 	muleq	r0, r4, r0
    5104:	fffffddc 			; <UNDEFINED> instruction: 0xfffffddc
    5108:	00000178 	andeq	r0, r0, r8, ror r1
    510c:	00002ee4 	andeq	r2, r0, r4, ror #29

00005110 <xeno_init_sem_heaps>:
    5110:	e92d4800 	push	{fp, lr}
    5114:	e28db004 	add	fp, sp, #4
    5118:	e59f3034 	ldr	r3, [pc, #52]	; 5154 <xeno_init_sem_heaps+0x44>
    511c:	e08f3003 	add	r3, pc, r3
    5120:	e1a00003 	mov	r0, r3
    5124:	e59f302c 	ldr	r3, [pc, #44]	; 5158 <xeno_init_sem_heaps+0x48>
    5128:	e08f3003 	add	r3, pc, r3
    512c:	e1a01003 	mov	r1, r3
    5130:	ebfff241 	bl	1a3c <_init+0x1e8>
    5134:	e59f3020 	ldr	r3, [pc, #32]	; 515c <xeno_init_sem_heaps+0x4c>
    5138:	e08f3003 	add	r3, pc, r3
    513c:	e1a00003 	mov	r0, r3
    5140:	e59f3018 	ldr	r3, [pc, #24]	; 5160 <xeno_init_sem_heaps+0x50>
    5144:	e08f3003 	add	r3, pc, r3
    5148:	e1a01003 	mov	r1, r3
    514c:	ebfff23a 	bl	1a3c <_init+0x1e8>
    5150:	e8bd8800 	pop	{fp, pc}
    5154:	0000b27c 	andeq	fp, r0, ip, ror r2
    5158:	fffffef0 			; <UNDEFINED> instruction: 0xfffffef0
    515c:	0000b274 	andeq	fp, r0, r4, ror r2
    5160:	ffffff3c 			; <UNDEFINED> instruction: 0xffffff3c

00005164 <xeno_sigwinch_handler>:
    5164:	e92d4880 	push	{r7, fp, lr}
    5168:	e28db008 	add	fp, sp, #8
    516c:	e24dd02c 	sub	sp, sp, #44	; 0x2c
    5170:	e50b0028 	str	r0, [fp, #-40]	; 0x28
    5174:	e50b102c 	str	r1, [fp, #-44]	; 0x2c
    5178:	e50b2030 	str	r2, [fp, #-48]	; 0x30
    517c:	e51b302c 	ldr	r3, [fp, #-44]	; 0x2c
    5180:	e5933008 	ldr	r3, [r3, #8]
    5184:	e3730001 	cmn	r3, #1
    5188:	0a000001 	beq	5194 <xeno_sigwinch_handler+0x30>
    518c:	e3a03000 	mov	r3, #0
    5190:	ea000028 	b	5238 <xeno_sigwinch_handler+0xd4>
    5194:	e51b302c 	ldr	r3, [fp, #-44]	; 0x2c
    5198:	e5933014 	ldr	r3, [r3, #20]
    519c:	e20330ff 	and	r3, r3, #255	; 0xff
    51a0:	e50b3010 	str	r3, [fp, #-16]
    51a4:	e51b3010 	ldr	r3, [fp, #-16]
    51a8:	e3530001 	cmp	r3, #1
    51ac:	0a000002 	beq	51bc <xeno_sigwinch_handler+0x58>
    51b0:	e3530002 	cmp	r3, #2
    51b4:	0a000009 	beq	51e0 <xeno_sigwinch_handler+0x7c>
    51b8:	ea00001b 	b	522c <xeno_sigwinch_handler+0xc8>
    51bc:	e59f3080 	ldr	r3, [pc, #128]	; 5244 <xeno_sigwinch_handler+0xe0>
    51c0:	e50b3014 	str	r3, [fp, #-20]
    51c4:	e3a03001 	mov	r3, #1
    51c8:	e50b3018 	str	r3, [fp, #-24]
    51cc:	e51b0014 	ldr	r0, [fp, #-20]
    51d0:	e51b1018 	ldr	r1, [fp, #-24]
    51d4:	e59f706c 	ldr	r7, [pc, #108]	; 5248 <xeno_sigwinch_handler+0xe4>
    51d8:	ef000000 	svc	0x00000000
    51dc:	ea000014 	b	5234 <xeno_sigwinch_handler+0xd0>
    51e0:	e51b302c 	ldr	r3, [fp, #-44]	; 0x2c
    51e4:	e5933014 	ldr	r3, [r3, #20]
    51e8:	e1a03443 	asr	r3, r3, #8
    51ec:	e20330ff 	and	r3, r3, #255	; 0xff
    51f0:	e50b3020 	str	r3, [fp, #-32]
    51f4:	e51b3020 	ldr	r3, [fp, #-32]
    51f8:	e3530000 	cmp	r3, #0
    51fc:	d3a03000 	movle	r3, #0
    5200:	c3a03001 	movgt	r3, #1
    5204:	e20330ff 	and	r3, r3, #255	; 0xff
    5208:	e50b301c 	str	r3, [fp, #-28]
    520c:	ebfff1bf 	bl	1910 <_init+0xbc>
    5210:	e1a02000 	mov	r2, r0
    5214:	e24b3020 	sub	r3, fp, #32
    5218:	e1a00002 	mov	r0, r2
    521c:	e51b101c 	ldr	r1, [fp, #-28]
    5220:	e1a02003 	mov	r2, r3
    5224:	ebfff26d 	bl	1be0 <_init+0x38c>
    5228:	ea000001 	b	5234 <xeno_sigwinch_handler+0xd0>
    522c:	e3a03000 	mov	r3, #0
    5230:	ea000000 	b	5238 <xeno_sigwinch_handler+0xd4>
    5234:	e3a03001 	mov	r3, #1
    5238:	e1a00003 	mov	r0, r3
    523c:	e24bd008 	sub	sp, fp, #8
    5240:	e8bd8880 	pop	{r7, fp, pc}
    5244:	0200022b 	andeq	r0, r0, #-1342177278	; 0xb0000002
    5248:	000f0042 	andeq	r0, pc, r2, asr #32

0000524c <xeno_sigshadow_handler>:
    524c:	e92d4800 	push	{fp, lr}
    5250:	e28db004 	add	fp, sp, #4
    5254:	e24dd098 	sub	sp, sp, #152	; 0x98
    5258:	e50b0090 	str	r0, [fp, #-144]	; 0x90
    525c:	e50b1094 	str	r1, [fp, #-148]	; 0x94
    5260:	e50b2098 	str	r2, [fp, #-152]	; 0x98
    5264:	e59f30e0 	ldr	r3, [pc, #224]	; 534c <xeno_sigshadow_handler+0x100>
    5268:	e08f3003 	add	r3, pc, r3
    526c:	e50b3008 	str	r3, [fp, #-8]
    5270:	e51b0090 	ldr	r0, [fp, #-144]	; 0x90
    5274:	e51b1094 	ldr	r1, [fp, #-148]	; 0x94
    5278:	e51b2098 	ldr	r2, [fp, #-152]	; 0x98
    527c:	ebfff194 	bl	18d4 <_init+0x80>
    5280:	e1a03000 	mov	r3, r0
    5284:	e3530000 	cmp	r3, #0
    5288:	1a00002d 	bne	5344 <xeno_sigshadow_handler+0xf8>
    528c:	e51b3008 	ldr	r3, [fp, #-8]
    5290:	e5933084 	ldr	r3, [r3, #132]	; 0x84
    5294:	e2033004 	and	r3, r3, #4
    5298:	e3530000 	cmp	r3, #0
    529c:	1a000003 	bne	52b0 <xeno_sigshadow_handler+0x64>
    52a0:	e51b3008 	ldr	r3, [fp, #-8]
    52a4:	e5933000 	ldr	r3, [r3]
    52a8:	e3530000 	cmp	r3, #0
    52ac:	0a000024 	beq	5344 <xeno_sigshadow_handler+0xf8>
    52b0:	e51b3008 	ldr	r3, [fp, #-8]
    52b4:	e5933084 	ldr	r3, [r3, #132]	; 0x84
    52b8:	e2033004 	and	r3, r3, #4
    52bc:	e3530000 	cmp	r3, #0
    52c0:	0a000003 	beq	52d4 <xeno_sigshadow_handler+0x88>
    52c4:	e51b3008 	ldr	r3, [fp, #-8]
    52c8:	e5933000 	ldr	r3, [r3]
    52cc:	e3530000 	cmp	r3, #0
    52d0:	0a00001b 	beq	5344 <xeno_sigshadow_handler+0xf8>
    52d4:	e51b3008 	ldr	r3, [fp, #-8]
    52d8:	e2832004 	add	r2, r3, #4
    52dc:	e24b3088 	sub	r3, fp, #136	; 0x88
    52e0:	e3a00002 	mov	r0, #2
    52e4:	e1a01002 	mov	r1, r2
    52e8:	e1a02003 	mov	r2, r3
    52ec:	ebfff1c0 	bl	19f4 <_init+0x1a0>
    52f0:	e51b3008 	ldr	r3, [fp, #-8]
    52f4:	e5933084 	ldr	r3, [r3, #132]	; 0x84
    52f8:	e2033004 	and	r3, r3, #4
    52fc:	e3530000 	cmp	r3, #0
    5300:	1a000004 	bne	5318 <xeno_sigshadow_handler+0xcc>
    5304:	e51b3008 	ldr	r3, [fp, #-8]
    5308:	e5933000 	ldr	r3, [r3]
    530c:	e51b0090 	ldr	r0, [fp, #-144]	; 0x90
    5310:	e12fff33 	blx	r3
    5314:	ea000005 	b	5330 <xeno_sigshadow_handler+0xe4>
    5318:	e51b3008 	ldr	r3, [fp, #-8]
    531c:	e5933000 	ldr	r3, [r3]
    5320:	e51b0090 	ldr	r0, [fp, #-144]	; 0x90
    5324:	e51b1094 	ldr	r1, [fp, #-148]	; 0x94
    5328:	e51b2098 	ldr	r2, [fp, #-152]	; 0x98
    532c:	e12fff33 	blx	r3
    5330:	e24b3088 	sub	r3, fp, #136	; 0x88
    5334:	e3a00002 	mov	r0, #2
    5338:	e1a01003 	mov	r1, r3
    533c:	e3a02000 	mov	r2, #0
    5340:	ebfff1ab 	bl	19f4 <_init+0x1a0>
    5344:	e24bd004 	sub	sp, fp, #4
    5348:	e8bd8800 	pop	{fp, pc}
    534c:	0000b148 	andeq	fp, r0, r8, asr #2

00005350 <xeno_sigshadow_install>:
    5350:	e92d4800 	push	{fp, lr}
    5354:	e28db004 	add	fp, sp, #4
    5358:	e24dde19 	sub	sp, sp, #400	; 0x190
    535c:	e24b3e19 	sub	r3, fp, #400	; 0x190
    5360:	e1a00003 	mov	r0, r3
    5364:	ebfff1fc 	bl	1b5c <_init+0x308>
    5368:	e24b3e19 	sub	r3, fp, #400	; 0x190
    536c:	e1a00003 	mov	r0, r3
    5370:	e3a0101c 	mov	r1, #28
    5374:	ebfff1aa 	bl	1a24 <_init+0x1d0>
    5378:	e3a03241 	mov	r3, #268435460	; 0x10000004
    537c:	e50b300c 	str	r3, [fp, #-12]
    5380:	e59f3090 	ldr	r3, [pc, #144]	; 5418 <xeno_sigshadow_install+0xc8>
    5384:	e08f3003 	add	r3, pc, r3
    5388:	e50b3090 	str	r3, [fp, #-144]	; 0x90
    538c:	e24b3090 	sub	r3, fp, #144	; 0x90
    5390:	e2833004 	add	r3, r3, #4
    5394:	e1a00003 	mov	r0, r3
    5398:	ebfff1ef 	bl	1b5c <_init+0x308>
    539c:	e24b2e19 	sub	r2, fp, #400	; 0x190
    53a0:	e24b3e11 	sub	r3, fp, #272	; 0x110
    53a4:	e3a00000 	mov	r0, #0
    53a8:	e1a01002 	mov	r1, r2
    53ac:	e1a02003 	mov	r2, r3
    53b0:	ebfff18f 	bl	19f4 <_init+0x1a0>
    53b4:	e24b3090 	sub	r3, fp, #144	; 0x90
    53b8:	e3a0001c 	mov	r0, #28
    53bc:	e1a01003 	mov	r1, r3
    53c0:	e59f3054 	ldr	r3, [pc, #84]	; 541c <xeno_sigshadow_install+0xcc>
    53c4:	e08f3003 	add	r3, pc, r3
    53c8:	e1a02003 	mov	r2, r3
    53cc:	ebfff176 	bl	19ac <_init+0x158>
    53d0:	e59f3048 	ldr	r3, [pc, #72]	; 5420 <xeno_sigshadow_install+0xd0>
    53d4:	e08f3003 	add	r3, pc, r3
    53d8:	e5933084 	ldr	r3, [r3, #132]	; 0x84
    53dc:	e2033101 	and	r3, r3, #1073741824	; 0x40000000
    53e0:	e3530000 	cmp	r3, #0
    53e4:	1a000004 	bne	53fc <xeno_sigshadow_install+0xac>
    53e8:	e59f3034 	ldr	r3, [pc, #52]	; 5424 <xeno_sigshadow_install+0xd4>
    53ec:	e08f3003 	add	r3, pc, r3
    53f0:	e2830004 	add	r0, r3, #4
    53f4:	e3a0101c 	mov	r1, #28
    53f8:	ebfff189 	bl	1a24 <_init+0x1d0>
    53fc:	e24b3e11 	sub	r3, fp, #272	; 0x110
    5400:	e3a00002 	mov	r0, #2
    5404:	e1a01003 	mov	r1, r3
    5408:	e3a02000 	mov	r2, #0
    540c:	ebfff178 	bl	19f4 <_init+0x1a0>
    5410:	e24bd004 	sub	sp, fp, #4
    5414:	e8bd8800 	pop	{fp, pc}
    5418:	fffffec0 			; <UNDEFINED> instruction: 0xfffffec0
    541c:	0000afec 	andeq	sl, r0, ip, ror #31
    5420:	0000afdc 	ldrdeq	sl, [r0], -ip
    5424:	0000afc4 	andeq	sl, r0, r4, asr #31

00005428 <xeno_sigshadow_install_once>:
    5428:	e92d4800 	push	{fp, lr}
    542c:	e28db004 	add	fp, sp, #4
    5430:	e59f2020 	ldr	r2, [pc, #32]	; 5458 <xeno_sigshadow_install_once+0x30>
    5434:	e08f2002 	add	r2, pc, r2
    5438:	e59f301c 	ldr	r3, [pc, #28]	; 545c <xeno_sigshadow_install_once+0x34>
    543c:	e08f3003 	add	r3, pc, r3
    5440:	e1a00003 	mov	r0, r3
    5444:	e59f3014 	ldr	r3, [pc, #20]	; 5460 <xeno_sigshadow_install_once+0x38>
    5448:	e7923003 	ldr	r3, [r2, r3]
    544c:	e1a01003 	mov	r1, r3
    5450:	ebfff179 	bl	1a3c <_init+0x1e8>
    5454:	e8bd8800 	pop	{fp, pc}
    5458:	0000acf4 	strdeq	sl, [r0], -r4
    545c:	0000b000 	andeq	fp, r0, r0
    5460:	00000148 	andeq	r0, r0, r8, asr #2

00005464 <__rthal_do_div>:
    5464:	e92d4810 	push	{r4, fp, lr}
    5468:	e28db008 	add	fp, sp, #8
    546c:	e24dd014 	sub	sp, sp, #20
    5470:	e50b0018 	str	r0, [fp, #-24]
    5474:	e50b101c 	str	r1, [fp, #-28]
    5478:	e51b3018 	ldr	r3, [fp, #-24]
    547c:	e8930006 	ldm	r3, {r1, r2}
    5480:	e51b001c 	ldr	r0, [fp, #-28]
    5484:	e1a03000 	mov	r3, r0
    5488:	e3a04000 	mov	r4, #0
    548c:	e1a00001 	mov	r0, r1
    5490:	e1a01002 	mov	r1, r2
    5494:	e1a02003 	mov	r2, r3
    5498:	e1a03004 	mov	r3, r4
    549c:	eb000368 	bl	6244 <__aeabi_uldivmod>
    54a0:	e1a04003 	mov	r4, r3
    54a4:	e1a03002 	mov	r3, r2
    54a8:	e50b3010 	str	r3, [fp, #-16]
    54ac:	e51b3018 	ldr	r3, [fp, #-24]
    54b0:	e8930006 	ldm	r3, {r1, r2}
    54b4:	e51b001c 	ldr	r0, [fp, #-28]
    54b8:	e1a03000 	mov	r3, r0
    54bc:	e3a04000 	mov	r4, #0
    54c0:	e1a00001 	mov	r0, r1
    54c4:	e1a01002 	mov	r1, r2
    54c8:	e1a02003 	mov	r2, r3
    54cc:	e1a03004 	mov	r3, r4
    54d0:	eb00035b 	bl	6244 <__aeabi_uldivmod>
    54d4:	e1a03000 	mov	r3, r0
    54d8:	e1a04001 	mov	r4, r1
    54dc:	e51b2018 	ldr	r2, [fp, #-24]
    54e0:	e8820018 	stm	r2, {r3, r4}
    54e4:	e51b3010 	ldr	r3, [fp, #-16]
    54e8:	e1a00003 	mov	r0, r3
    54ec:	e24bd008 	sub	sp, fp, #8
    54f0:	e8bd8810 	pop	{r4, fp, pc}

000054f4 <__rthal_generic_ullmul>:
    54f4:	e92d0870 	push	{r4, r5, r6, fp}
    54f8:	e28db00c 	add	fp, sp, #12
    54fc:	e24dd008 	sub	sp, sp, #8
    5500:	e50b0010 	str	r0, [fp, #-16]
    5504:	e50b1014 	str	r1, [fp, #-20]
    5508:	e51b3010 	ldr	r3, [fp, #-16]
    550c:	e1a01003 	mov	r1, r3
    5510:	e3a02000 	mov	r2, #0
    5514:	e51b0014 	ldr	r0, [fp, #-20]
    5518:	e1a03000 	mov	r3, r0
    551c:	e3a04000 	mov	r4, #0
    5520:	e00c0293 	mul	ip, r3, r2
    5524:	e0000491 	mul	r0, r1, r4
    5528:	e08c0000 	add	r0, ip, r0
    552c:	e0865391 	umull	r5, r6, r1, r3
    5530:	e0803006 	add	r3, r0, r6
    5534:	e1a06003 	mov	r6, r3
    5538:	e1a03005 	mov	r3, r5
    553c:	e1a04006 	mov	r4, r6
    5540:	e1a00003 	mov	r0, r3
    5544:	e1a01004 	mov	r1, r4
    5548:	e24bd00c 	sub	sp, fp, #12
    554c:	e8bd0870 	pop	{r4, r5, r6, fp}
    5550:	e12fff1e 	bx	lr

00005554 <__rthal_generic_ulldiv>:
    5554:	e92d4810 	push	{r4, fp, lr}
    5558:	e28db008 	add	fp, sp, #8
    555c:	e24dd01c 	sub	sp, sp, #28
    5560:	e50b001c 	str	r0, [fp, #-28]
    5564:	e50b1018 	str	r1, [fp, #-24]
    5568:	e50b2020 	str	r2, [fp, #-32]
    556c:	e50b3024 	str	r3, [fp, #-36]	; 0x24
    5570:	e24b301c 	sub	r3, fp, #28
    5574:	e1a00003 	mov	r0, r3
    5578:	e51b1020 	ldr	r1, [fp, #-32]
    557c:	ebffffb8 	bl	5464 <__rthal_do_div>
    5580:	e50b0010 	str	r0, [fp, #-16]
    5584:	e51b3024 	ldr	r3, [fp, #-36]	; 0x24
    5588:	e3530000 	cmp	r3, #0
    558c:	0a000002 	beq	559c <__rthal_generic_ulldiv+0x48>
    5590:	e51b3024 	ldr	r3, [fp, #-36]	; 0x24
    5594:	e51b2010 	ldr	r2, [fp, #-16]
    5598:	e5832000 	str	r2, [r3]
    559c:	e24b401c 	sub	r4, fp, #28
    55a0:	e8940018 	ldm	r4, {r3, r4}
    55a4:	e1a00003 	mov	r0, r3
    55a8:	e1a01004 	mov	r1, r4
    55ac:	e24bd008 	sub	sp, fp, #8
    55b0:	e8bd8810 	pop	{r4, fp, pc}

000055b4 <__rthal_generic_div96by32>:
    55b4:	e92d4810 	push	{r4, fp, lr}
    55b8:	e28db008 	add	fp, sp, #8
    55bc:	e24dd03c 	sub	sp, sp, #60	; 0x3c
    55c0:	e50b003c 	str	r0, [fp, #-60]	; 0x3c
    55c4:	e50b1038 	str	r1, [fp, #-56]	; 0x38
    55c8:	e50b2040 	str	r2, [fp, #-64]	; 0x40
    55cc:	e50b3044 	str	r3, [fp, #-68]	; 0x44
    55d0:	e24b3024 	sub	r3, fp, #36	; 0x24
    55d4:	e24b103c 	sub	r1, fp, #60	; 0x3c
    55d8:	e8910003 	ldm	r1, {r0, r1}
    55dc:	e51b2044 	ldr	r2, [fp, #-68]	; 0x44
    55e0:	ebffffdb 	bl	5554 <__rthal_generic_ulldiv>
    55e4:	e1a03000 	mov	r3, r0
    55e8:	e1a04001 	mov	r4, r1
    55ec:	e50b3010 	str	r3, [fp, #-16]
    55f0:	e51b3024 	ldr	r3, [fp, #-36]	; 0x24
    55f4:	e50b3028 	str	r3, [fp, #-40]	; 0x28
    55f8:	e51b3040 	ldr	r3, [fp, #-64]	; 0x40
    55fc:	e50b302c 	str	r3, [fp, #-44]	; 0x2c
    5600:	e24b402c 	sub	r4, fp, #44	; 0x2c
    5604:	e8940018 	ldm	r4, {r3, r4}
    5608:	e50b301c 	str	r3, [fp, #-28]
    560c:	e50b4018 	str	r4, [fp, #-24]
    5610:	e24b101c 	sub	r1, fp, #28
    5614:	e8910003 	ldm	r1, {r0, r1}
    5618:	e51b2044 	ldr	r2, [fp, #-68]	; 0x44
    561c:	e59b3004 	ldr	r3, [fp, #4]
    5620:	ebffffcb 	bl	5554 <__rthal_generic_ulldiv>
    5624:	e1a03000 	mov	r3, r0
    5628:	e1a04001 	mov	r4, r1
    562c:	e50b3020 	str	r3, [fp, #-32]
    5630:	e51b3010 	ldr	r3, [fp, #-16]
    5634:	e50b3030 	str	r3, [fp, #-48]	; 0x30
    5638:	e51b3020 	ldr	r3, [fp, #-32]
    563c:	e50b3034 	str	r3, [fp, #-52]	; 0x34
    5640:	e24b4034 	sub	r4, fp, #52	; 0x34
    5644:	e8940018 	ldm	r4, {r3, r4}
    5648:	e1a00003 	mov	r0, r3
    564c:	e1a01004 	mov	r1, r4
    5650:	e24bd008 	sub	sp, fp, #8
    5654:	e8bd8810 	pop	{r4, fp, pc}

00005658 <rthal_llmi>:
    5658:	e92d0870 	push	{r4, r5, r6, fp}
    565c:	e28db00c 	add	fp, sp, #12
    5660:	e24dd008 	sub	sp, sp, #8
    5664:	e50b0010 	str	r0, [fp, #-16]
    5668:	e50b1014 	str	r1, [fp, #-20]
    566c:	e51b3010 	ldr	r3, [fp, #-16]
    5670:	e1a01003 	mov	r1, r3
    5674:	e1a02fc1 	asr	r2, r1, #31
    5678:	e51b0014 	ldr	r0, [fp, #-20]
    567c:	e1a03000 	mov	r3, r0
    5680:	e1a04fc3 	asr	r4, r3, #31
    5684:	e00c0293 	mul	ip, r3, r2
    5688:	e0000491 	mul	r0, r1, r4
    568c:	e08c0000 	add	r0, ip, r0
    5690:	e0865391 	umull	r5, r6, r1, r3
    5694:	e0803006 	add	r3, r0, r6
    5698:	e1a06003 	mov	r6, r3
    569c:	e1a03005 	mov	r3, r5
    56a0:	e1a04006 	mov	r4, r6
    56a4:	e1a00003 	mov	r0, r3
    56a8:	e1a01004 	mov	r1, r4
    56ac:	e24bd00c 	sub	sp, fp, #12
    56b0:	e8bd0870 	pop	{r4, r5, r6, fp}
    56b4:	e12fff1e 	bx	lr

000056b8 <__rthal_generic_llmulshft>:
    56b8:	e92d4810 	push	{r4, fp, lr}
    56bc:	e28db008 	add	fp, sp, #8
    56c0:	e24dd06c 	sub	sp, sp, #108	; 0x6c
    56c4:	e50b006c 	str	r0, [fp, #-108]	; 0x6c
    56c8:	e50b1068 	str	r1, [fp, #-104]	; 0x68
    56cc:	e50b2070 	str	r2, [fp, #-112]	; 0x70
    56d0:	e50b3074 	str	r3, [fp, #-116]	; 0x74
    56d4:	e24b406c 	sub	r4, fp, #108	; 0x6c
    56d8:	e8940018 	ldm	r4, {r3, r4}
    56dc:	e50b304c 	str	r3, [fp, #-76]	; 0x4c
    56e0:	e50b4048 	str	r4, [fp, #-72]	; 0x48
    56e4:	e51b3048 	ldr	r3, [fp, #-72]	; 0x48
    56e8:	e50b3010 	str	r3, [fp, #-16]
    56ec:	e51b304c 	ldr	r3, [fp, #-76]	; 0x4c
    56f0:	e50b3014 	str	r3, [fp, #-20]
    56f4:	e51b0014 	ldr	r0, [fp, #-20]
    56f8:	e51b1070 	ldr	r1, [fp, #-112]	; 0x70
    56fc:	ebffff7c 	bl	54f4 <__rthal_generic_ullmul>
    5700:	e50b001c 	str	r0, [fp, #-28]
    5704:	e50b1018 	str	r1, [fp, #-24]
    5708:	e24b401c 	sub	r4, fp, #28
    570c:	e8940018 	ldm	r4, {r3, r4}
    5710:	e50b3054 	str	r3, [fp, #-84]	; 0x54
    5714:	e50b4050 	str	r4, [fp, #-80]	; 0x50
    5718:	e51b3050 	ldr	r3, [fp, #-80]	; 0x50
    571c:	e50b3020 	str	r3, [fp, #-32]
    5720:	e51b3054 	ldr	r3, [fp, #-84]	; 0x54
    5724:	e50b3024 	str	r3, [fp, #-36]	; 0x24
    5728:	e51b2010 	ldr	r2, [fp, #-16]
    572c:	e51b3070 	ldr	r3, [fp, #-112]	; 0x70
    5730:	e1a00002 	mov	r0, r2
    5734:	e1a01003 	mov	r1, r3
    5738:	ebffffc6 	bl	5658 <rthal_llmi>
    573c:	e1a03000 	mov	r3, r0
    5740:	e1a04001 	mov	r4, r1
    5744:	e50b302c 	str	r3, [fp, #-44]	; 0x2c
    5748:	e50b4028 	str	r4, [fp, #-40]	; 0x28
    574c:	e51b2020 	ldr	r2, [fp, #-32]
    5750:	e1a03002 	mov	r3, r2
    5754:	e3a04000 	mov	r4, #0
    5758:	e24b202c 	sub	r2, fp, #44	; 0x2c
    575c:	e8920006 	ldm	r2, {r1, r2}
    5760:	e0933001 	adds	r3, r3, r1
    5764:	e0a44002 	adc	r4, r4, r2
    5768:	e50b302c 	str	r3, [fp, #-44]	; 0x2c
    576c:	e50b4028 	str	r4, [fp, #-40]	; 0x28
    5770:	e24b402c 	sub	r4, fp, #44	; 0x2c
    5774:	e8940018 	ldm	r4, {r3, r4}
    5778:	e50b305c 	str	r3, [fp, #-92]	; 0x5c
    577c:	e50b4058 	str	r4, [fp, #-88]	; 0x58
    5780:	e51b3058 	ldr	r3, [fp, #-88]	; 0x58
    5784:	e50b3030 	str	r3, [fp, #-48]	; 0x30
    5788:	e51b305c 	ldr	r3, [fp, #-92]	; 0x5c
    578c:	e50b3034 	str	r3, [fp, #-52]	; 0x34
    5790:	e51b3024 	ldr	r3, [fp, #-36]	; 0x24
    5794:	e50b3038 	str	r3, [fp, #-56]	; 0x38
    5798:	e51b3034 	ldr	r3, [fp, #-52]	; 0x34
    579c:	e50b303c 	str	r3, [fp, #-60]	; 0x3c
    57a0:	e51b3074 	ldr	r3, [fp, #-116]	; 0x74
    57a4:	e50b3040 	str	r3, [fp, #-64]	; 0x40
    57a8:	e51b3040 	ldr	r3, [fp, #-64]	; 0x40
    57ac:	e51b2038 	ldr	r2, [fp, #-56]	; 0x38
    57b0:	e1a03332 	lsr	r3, r2, r3
    57b4:	e50b3038 	str	r3, [fp, #-56]	; 0x38
    57b8:	e51b3040 	ldr	r3, [fp, #-64]	; 0x40
    57bc:	e2633020 	rsb	r3, r3, #32
    57c0:	e51b203c 	ldr	r2, [fp, #-60]	; 0x3c
    57c4:	e1a03312 	lsl	r3, r2, r3
    57c8:	e51b2038 	ldr	r2, [fp, #-56]	; 0x38
    57cc:	e1823003 	orr	r3, r2, r3
    57d0:	e50b3038 	str	r3, [fp, #-56]	; 0x38
    57d4:	e51b3040 	ldr	r3, [fp, #-64]	; 0x40
    57d8:	e51b203c 	ldr	r2, [fp, #-60]	; 0x3c
    57dc:	e1a03332 	lsr	r3, r2, r3
    57e0:	e50b303c 	str	r3, [fp, #-60]	; 0x3c
    57e4:	e51b3040 	ldr	r3, [fp, #-64]	; 0x40
    57e8:	e2633020 	rsb	r3, r3, #32
    57ec:	e51b2030 	ldr	r2, [fp, #-48]	; 0x30
    57f0:	e1a03312 	lsl	r3, r2, r3
    57f4:	e51b203c 	ldr	r2, [fp, #-60]	; 0x3c
    57f8:	e1823003 	orr	r3, r2, r3
    57fc:	e50b303c 	str	r3, [fp, #-60]	; 0x3c
    5800:	e51b303c 	ldr	r3, [fp, #-60]	; 0x3c
    5804:	e50b3060 	str	r3, [fp, #-96]	; 0x60
    5808:	e51b3038 	ldr	r3, [fp, #-56]	; 0x38
    580c:	e50b3064 	str	r3, [fp, #-100]	; 0x64
    5810:	e24b4064 	sub	r4, fp, #100	; 0x64
    5814:	e8940018 	ldm	r4, {r3, r4}
    5818:	e1a00003 	mov	r0, r3
    581c:	e1a01004 	mov	r1, r4
    5820:	e24bd008 	sub	sp, fp, #8
    5824:	e8bd8810 	pop	{r4, fp, pc}

00005828 <xnarch_init_u32frac>:
    5828:	e92d4810 	push	{r4, fp, lr}
    582c:	e28db008 	add	fp, sp, #8
    5830:	e24dd02c 	sub	sp, sp, #44	; 0x2c
    5834:	e50b0020 	str	r0, [fp, #-32]
    5838:	e50b1024 	str	r1, [fp, #-36]	; 0x24
    583c:	e50b2028 	str	r2, [fp, #-40]	; 0x28
    5840:	e51b3028 	ldr	r3, [fp, #-40]	; 0x28
    5844:	e50b3010 	str	r3, [fp, #-16]
    5848:	e51b0024 	ldr	r0, [fp, #-36]	; 0x24
    584c:	e51b1028 	ldr	r1, [fp, #-40]	; 0x28
    5850:	eb0001f8 	bl	6038 <__aeabi_uidiv>
    5854:	e1a03000 	mov	r3, r0
    5858:	e1a02003 	mov	r2, r3
    585c:	e51b3020 	ldr	r3, [fp, #-32]
    5860:	e5832008 	str	r2, [r3, #8]
    5864:	e51b3024 	ldr	r3, [fp, #-36]	; 0x24
    5868:	e1a00003 	mov	r0, r3
    586c:	e51b1028 	ldr	r1, [fp, #-40]	; 0x28
    5870:	eb00026b 	bl	6224 <__aeabi_uidivmod>
    5874:	e1a03001 	mov	r3, r1
    5878:	e50b3018 	str	r3, [fp, #-24]
    587c:	e3a03000 	mov	r3, #0
    5880:	e50b301c 	str	r3, [fp, #-28]
    5884:	e24b401c 	sub	r4, fp, #28
    5888:	e8940018 	ldm	r4, {r3, r4}
    588c:	e51bc010 	ldr	ip, [fp, #-16]
    5890:	e3a02000 	mov	r2, #0
    5894:	e58d2000 	str	r2, [sp]
    5898:	e1a00003 	mov	r0, r3
    589c:	e1a01004 	mov	r1, r4
    58a0:	e3a02000 	mov	r2, #0
    58a4:	e1a0300c 	mov	r3, ip
    58a8:	ebffff41 	bl	55b4 <__rthal_generic_div96by32>
    58ac:	e1a03000 	mov	r3, r0
    58b0:	e1a04001 	mov	r4, r1
    58b4:	e51b2020 	ldr	r2, [fp, #-32]
    58b8:	e8820018 	stm	r2, {r3, r4}
    58bc:	e24bd008 	sub	sp, fp, #8
    58c0:	e8bd8810 	pop	{r4, fp, pc}

000058c4 <xnarch_init_llmulshft>:
    58c4:	e92d4830 	push	{r4, r5, fp, lr}
    58c8:	e28db00c 	add	fp, sp, #12
    58cc:	e24dd020 	sub	sp, sp, #32
    58d0:	e50b0020 	str	r0, [fp, #-32]
    58d4:	e50b1024 	str	r1, [fp, #-36]	; 0x24
    58d8:	e50b2028 	str	r2, [fp, #-40]	; 0x28
    58dc:	e50b302c 	str	r3, [fp, #-44]	; 0x2c
    58e0:	e51b3024 	ldr	r3, [fp, #-36]	; 0x24
    58e4:	e50b3010 	str	r3, [fp, #-16]
    58e8:	e51b302c 	ldr	r3, [fp, #-44]	; 0x2c
    58ec:	e3a0201f 	mov	r2, #31
    58f0:	e5832000 	str	r2, [r3]
    58f4:	e51b1020 	ldr	r1, [fp, #-32]
    58f8:	e1a02001 	mov	r2, r1
    58fc:	e3a03000 	mov	r3, #0
    5900:	e51b102c 	ldr	r1, [fp, #-44]	; 0x2c
    5904:	e5911000 	ldr	r1, [r1]
    5908:	e2410020 	sub	r0, r1, #32
    590c:	e1a0c012 	lsl	ip, r2, r0
    5910:	e261e020 	rsb	lr, r1, #32
    5914:	e1a0ee32 	lsr	lr, r2, lr
    5918:	e1a05113 	lsl	r5, r3, r1
    591c:	e18e5005 	orr	r5, lr, r5
    5920:	e3500000 	cmp	r0, #0
    5924:	a1a0500c 	movge	r5, ip
    5928:	e1a04112 	lsl	r4, r2, r1
    592c:	e50b401c 	str	r4, [fp, #-28]
    5930:	e50b5018 	str	r5, [fp, #-24]
    5934:	e51b3010 	ldr	r3, [fp, #-16]
    5938:	e24b201c 	sub	r2, fp, #28
    593c:	e1a00002 	mov	r0, r2
    5940:	e1a01003 	mov	r1, r3
    5944:	ebfffec6 	bl	5464 <__rthal_do_div>
    5948:	e24b301c 	sub	r3, fp, #28
    594c:	e893000c 	ldm	r3, {r2, r3}
    5950:	e3e00102 	mvn	r0, #-2147483648	; 0x80000000
    5954:	e3a01000 	mov	r1, #0
    5958:	e1510003 	cmp	r1, r3
    595c:	01500002 	cmpeq	r0, r2
    5960:	2a000005 	bcs	597c <xnarch_init_llmulshft+0xb8>
    5964:	e51b302c 	ldr	r3, [fp, #-44]	; 0x2c
    5968:	e5933000 	ldr	r3, [r3]
    596c:	e2432001 	sub	r2, r3, #1
    5970:	e51b302c 	ldr	r3, [fp, #-44]	; 0x2c
    5974:	e5832000 	str	r2, [r3]
    5978:	eaffffdd 	b	58f4 <xnarch_init_llmulshft+0x30>
    597c:	e1a00000 	nop			; (mov r0, r0)
    5980:	e24b401c 	sub	r4, fp, #28
    5984:	e8940018 	ldm	r4, {r3, r4}
    5988:	e1a02003 	mov	r2, r3
    598c:	e51b3028 	ldr	r3, [fp, #-40]	; 0x28
    5990:	e5832000 	str	r2, [r3]
    5994:	e24bd00c 	sub	sp, fp, #12
    5998:	e8bd8830 	pop	{r4, r5, fp, pc}

0000599c <rthal_arm_nodiv_ullimd>:
    599c:	e92d0bf0 	push	{r4, r5, r6, r7, r8, r9, fp}
    59a0:	e28db018 	add	fp, sp, #24
    59a4:	e24dd02c 	sub	sp, sp, #44	; 0x2c
    59a8:	e50b003c 	str	r0, [fp, #-60]	; 0x3c
    59ac:	e50b1038 	str	r1, [fp, #-56]	; 0x38
    59b0:	e50b2044 	str	r2, [fp, #-68]	; 0x44
    59b4:	e50b3040 	str	r3, [fp, #-64]	; 0x40
    59b8:	e59b4004 	ldr	r4, [fp, #4]
    59bc:	e24b303c 	sub	r3, fp, #60	; 0x3c
    59c0:	e893000c 	ldm	r3, {r2, r3}
    59c4:	e50b2024 	str	r2, [fp, #-36]	; 0x24
    59c8:	e50b3020 	str	r3, [fp, #-32]
    59cc:	e51b3020 	ldr	r3, [fp, #-32]
    59d0:	e1a07003 	mov	r7, r3
    59d4:	e51b3024 	ldr	r3, [fp, #-36]	; 0x24
    59d8:	e1a06003 	mov	r6, r3
    59dc:	e24b3044 	sub	r3, fp, #68	; 0x44
    59e0:	e893000c 	ldm	r3, {r2, r3}
    59e4:	e50b202c 	str	r2, [fp, #-44]	; 0x2c
    59e8:	e50b3028 	str	r3, [fp, #-40]	; 0x28
    59ec:	e51b3028 	ldr	r3, [fp, #-40]	; 0x28
    59f0:	e51b202c 	ldr	r2, [fp, #-44]	; 0x2c
    59f4:	e0858296 	umull	r8, r5, r6, r2
    59f8:	e0810397 	umull	r0, r1, r7, r3
    59fc:	e0955fa8 	adds	r5, r5, r8, lsr #31
    5a00:	e2b00000 	adcs	r0, r0, #0
    5a04:	e2a11000 	adc	r1, r1, #0
    5a08:	e0898297 	umull	r8, r9, r7, r2
    5a0c:	e0955008 	adds	r5, r5, r8
    5a10:	e0b00009 	adcs	r0, r0, r9
    5a14:	e2a11000 	adc	r1, r1, #0
    5a18:	e0898396 	umull	r8, r9, r6, r3
    5a1c:	e0955008 	adds	r5, r5, r8
    5a20:	e0b00009 	adcs	r0, r0, r9
    5a24:	e2a11000 	adc	r1, r1, #0
    5a28:	e0a10496 	umlal	r0, r1, r6, r4
    5a2c:	e0211497 	mla	r1, r7, r4, r1
    5a30:	e1a03001 	mov	r3, r1
    5a34:	e50b3030 	str	r3, [fp, #-48]	; 0x30
    5a38:	e1a03000 	mov	r3, r0
    5a3c:	e50b3034 	str	r3, [fp, #-52]	; 0x34
    5a40:	e24b4034 	sub	r4, fp, #52	; 0x34
    5a44:	e8940018 	ldm	r4, {r3, r4}
    5a48:	e1a00003 	mov	r0, r3
    5a4c:	e1a01004 	mov	r1, r4
    5a50:	e24bd018 	sub	sp, fp, #24
    5a54:	e8bd0bf0 	pop	{r4, r5, r6, r7, r8, r9, fp}
    5a58:	e12fff1e 	bx	lr

00005a5c <rthal_arm_nodiv_llimd>:
    5a5c:	e92d0ff0 	push	{r4, r5, r6, r7, r8, r9, sl, fp}
    5a60:	e28db01c 	add	fp, sp, #28
    5a64:	e24dd028 	sub	sp, sp, #40	; 0x28
    5a68:	e50b003c 	str	r0, [fp, #-60]	; 0x3c
    5a6c:	e50b1038 	str	r1, [fp, #-56]	; 0x38
    5a70:	e50b2044 	str	r2, [fp, #-68]	; 0x44
    5a74:	e50b3040 	str	r3, [fp, #-64]	; 0x40
    5a78:	e59b4004 	ldr	r4, [fp, #4]
    5a7c:	e24b303c 	sub	r3, fp, #60	; 0x3c
    5a80:	e893000c 	ldm	r3, {r2, r3}
    5a84:	e50b2024 	str	r2, [fp, #-36]	; 0x24
    5a88:	e50b3020 	str	r3, [fp, #-32]
    5a8c:	e51b3020 	ldr	r3, [fp, #-32]
    5a90:	e1a07003 	mov	r7, r3
    5a94:	e51b3024 	ldr	r3, [fp, #-36]	; 0x24
    5a98:	e1a06003 	mov	r6, r3
    5a9c:	e24b3044 	sub	r3, fp, #68	; 0x44
    5aa0:	e893000c 	ldm	r3, {r2, r3}
    5aa4:	e50b202c 	str	r2, [fp, #-44]	; 0x2c
    5aa8:	e50b3028 	str	r3, [fp, #-40]	; 0x28
    5aac:	e51b3028 	ldr	r3, [fp, #-40]	; 0x28
    5ab0:	e51b202c 	ldr	r2, [fp, #-44]	; 0x2c
    5ab4:	e1b0af27 	lsrs	sl, r7, #30
    5ab8:	0a000001 	beq	5ac4 <rthal_arm_nodiv_llimd+0x68>
    5abc:	e2766000 	rsbs	r6, r6, #0
    5ac0:	e0c77087 	sbc	r7, r7, r7, lsl #1
    5ac4:	e0858296 	umull	r8, r5, r6, r2
    5ac8:	e0810397 	umull	r0, r1, r7, r3
    5acc:	e0955fa8 	adds	r5, r5, r8, lsr #31
    5ad0:	e2b00000 	adcs	r0, r0, #0
    5ad4:	e2a11000 	adc	r1, r1, #0
    5ad8:	e0898297 	umull	r8, r9, r7, r2
    5adc:	e0955008 	adds	r5, r5, r8
    5ae0:	e0b00009 	adcs	r0, r0, r9
    5ae4:	e2a11000 	adc	r1, r1, #0
    5ae8:	e0898396 	umull	r8, r9, r6, r3
    5aec:	e0955008 	adds	r5, r5, r8
    5af0:	e0b00009 	adcs	r0, r0, r9
    5af4:	e2a11000 	adc	r1, r1, #0
    5af8:	e0a10496 	umlal	r0, r1, r6, r4
    5afc:	e0211497 	mla	r1, r7, r4, r1
    5b00:	e33a0000 	teq	sl, #0
    5b04:	0a000001 	beq	5b10 <rthal_arm_nodiv_llimd+0xb4>
    5b08:	e2700000 	rsbs	r0, r0, #0
    5b0c:	e0c11081 	sbc	r1, r1, r1, lsl #1
    5b10:	e1a03001 	mov	r3, r1
    5b14:	e50b3030 	str	r3, [fp, #-48]	; 0x30
    5b18:	e1a03000 	mov	r3, r0
    5b1c:	e50b3034 	str	r3, [fp, #-52]	; 0x34
    5b20:	e24b4034 	sub	r4, fp, #52	; 0x34
    5b24:	e8940018 	ldm	r4, {r3, r4}
    5b28:	e1a00003 	mov	r0, r3
    5b2c:	e1a01004 	mov	r1, r4
    5b30:	e24bd01c 	sub	sp, fp, #28
    5b34:	e8bd0ff0 	pop	{r4, r5, r6, r7, r8, r9, sl, fp}
    5b38:	e12fff1e 	bx	lr

00005b3c <xnarch_tsc_to_ns>:
    5b3c:	e92d4810 	push	{r4, fp, lr}
    5b40:	e28db008 	add	fp, sp, #8
    5b44:	e24dd00c 	sub	sp, sp, #12
    5b48:	e50b0014 	str	r0, [fp, #-20]
    5b4c:	e50b1010 	str	r1, [fp, #-16]
    5b50:	e59f3034 	ldr	r3, [pc, #52]	; 5b8c <xnarch_tsc_to_ns+0x50>
    5b54:	e08f3003 	add	r3, pc, r3
    5b58:	e5932000 	ldr	r2, [r3]
    5b5c:	e59f302c 	ldr	r3, [pc, #44]	; 5b90 <xnarch_tsc_to_ns+0x54>
    5b60:	e08f3003 	add	r3, pc, r3
    5b64:	e5933000 	ldr	r3, [r3]
    5b68:	e24b1014 	sub	r1, fp, #20
    5b6c:	e8910003 	ldm	r1, {r0, r1}
    5b70:	ebfffed0 	bl	56b8 <__rthal_generic_llmulshft>
    5b74:	e1a03000 	mov	r3, r0
    5b78:	e1a04001 	mov	r4, r1
    5b7c:	e1a00003 	mov	r0, r3
    5b80:	e1a01004 	mov	r1, r4
    5b84:	e24bd008 	sub	sp, fp, #8
    5b88:	e8bd8810 	pop	{r4, fp, pc}
    5b8c:	0000a8f4 	strdeq	sl, [r0], -r4
    5b90:	0000a8ec 	andeq	sl, r0, ip, ror #17

00005b94 <xnarch_tsc_to_ns_rounded>:
    5b94:	e92d4810 	push	{r4, fp, lr}
    5b98:	e28db008 	add	fp, sp, #8
    5b9c:	e24dd014 	sub	sp, sp, #20
    5ba0:	e50b001c 	str	r0, [fp, #-28]
    5ba4:	e50b1018 	str	r1, [fp, #-24]
    5ba8:	e59f3070 	ldr	r3, [pc, #112]	; 5c20 <xnarch_tsc_to_ns_rounded+0x8c>
    5bac:	e08f3003 	add	r3, pc, r3
    5bb0:	e5933000 	ldr	r3, [r3]
    5bb4:	e2433001 	sub	r3, r3, #1
    5bb8:	e50b3010 	str	r3, [fp, #-16]
    5bbc:	e59f3060 	ldr	r3, [pc, #96]	; 5c24 <xnarch_tsc_to_ns_rounded+0x90>
    5bc0:	e08f3003 	add	r3, pc, r3
    5bc4:	e5933000 	ldr	r3, [r3]
    5bc8:	e24b101c 	sub	r1, fp, #28
    5bcc:	e8910003 	ldm	r1, {r0, r1}
    5bd0:	e1a02003 	mov	r2, r3
    5bd4:	e51b3010 	ldr	r3, [fp, #-16]
    5bd8:	ebfffeb6 	bl	56b8 <__rthal_generic_llmulshft>
    5bdc:	e1a02001 	mov	r2, r1
    5be0:	e1a01000 	mov	r1, r0
    5be4:	e3a03001 	mov	r3, #1
    5be8:	e3a04000 	mov	r4, #0
    5bec:	e0911003 	adds	r1, r1, r3
    5bf0:	e0a22004 	adc	r2, r2, r4
    5bf4:	e1a00fa2 	lsr	r0, r2, #31
    5bf8:	e1a03000 	mov	r3, r0
    5bfc:	e3a04000 	mov	r4, #0
    5c00:	e0933001 	adds	r3, r3, r1
    5c04:	e0a44002 	adc	r4, r4, r2
    5c08:	e1b040c4 	asrs	r4, r4, #1
    5c0c:	e1a03063 	rrx	r3, r3
    5c10:	e1a00003 	mov	r0, r3
    5c14:	e1a01004 	mov	r1, r4
    5c18:	e24bd008 	sub	sp, fp, #8
    5c1c:	e8bd8810 	pop	{r4, fp, pc}
    5c20:	0000a8a0 	andeq	sl, r0, r0, lsr #17
    5c24:	0000a888 	andeq	sl, r0, r8, lsl #17

00005c28 <xnarch_ns_to_tsc>:
    5c28:	e92d4810 	push	{r4, fp, lr}
    5c2c:	e28db008 	add	fp, sp, #8
    5c30:	e24dd014 	sub	sp, sp, #20
    5c34:	e50b0014 	str	r0, [fp, #-20]
    5c38:	e50b1010 	str	r1, [fp, #-16]
    5c3c:	e59f3040 	ldr	r3, [pc, #64]	; 5c84 <xnarch_ns_to_tsc+0x5c>
    5c40:	e08f3003 	add	r3, pc, r3
    5c44:	e8930018 	ldm	r3, {r3, r4}
    5c48:	e59f2038 	ldr	r2, [pc, #56]	; 5c88 <xnarch_ns_to_tsc+0x60>
    5c4c:	e08f2002 	add	r2, pc, r2
    5c50:	e5922008 	ldr	r2, [r2, #8]
    5c54:	e58d2000 	str	r2, [sp]
    5c58:	e24b1014 	sub	r1, fp, #20
    5c5c:	e8910003 	ldm	r1, {r0, r1}
    5c60:	e1a02003 	mov	r2, r3
    5c64:	e1a03004 	mov	r3, r4
    5c68:	ebffff7b 	bl	5a5c <rthal_arm_nodiv_llimd>
    5c6c:	e1a03000 	mov	r3, r0
    5c70:	e1a04001 	mov	r4, r1
    5c74:	e1a00003 	mov	r0, r3
    5c78:	e1a01004 	mov	r1, r4
    5c7c:	e24bd008 	sub	sp, fp, #8
    5c80:	e8bd8810 	pop	{r4, fp, pc}
    5c84:	0000a810 	andeq	sl, r0, r0, lsl r8
    5c88:	0000a804 	andeq	sl, r0, r4, lsl #16

00005c8c <xnarch_divrem_billion>:
    5c8c:	e92d4810 	push	{r4, fp, lr}
    5c90:	e28db008 	add	fp, sp, #8
    5c94:	e24dd02c 	sub	sp, sp, #44	; 0x2c
    5c98:	e50b0024 	str	r0, [fp, #-36]	; 0x24
    5c9c:	e50b1020 	str	r1, [fp, #-32]
    5ca0:	e50b2028 	str	r2, [fp, #-40]	; 0x28
    5ca4:	e59f30dc 	ldr	r3, [pc, #220]	; 5d88 <xnarch_divrem_billion+0xfc>
    5ca8:	e08f3003 	add	r3, pc, r3
    5cac:	e8930018 	ldm	r3, {r3, r4}
    5cb0:	e59f20d4 	ldr	r2, [pc, #212]	; 5d8c <xnarch_divrem_billion+0x100>
    5cb4:	e08f2002 	add	r2, pc, r2
    5cb8:	e5922008 	ldr	r2, [r2, #8]
    5cbc:	e58d2000 	str	r2, [sp]
    5cc0:	e24b1024 	sub	r1, fp, #36	; 0x24
    5cc4:	e8910003 	ldm	r1, {r0, r1}
    5cc8:	e1a02003 	mov	r2, r3
    5ccc:	e1a03004 	mov	r3, r4
    5cd0:	ebffff31 	bl	599c <rthal_arm_nodiv_ullimd>
    5cd4:	e50b0014 	str	r0, [fp, #-20]
    5cd8:	e50b1010 	str	r1, [fp, #-16]
    5cdc:	e51b0024 	ldr	r0, [fp, #-36]	; 0x24
    5ce0:	e51b1014 	ldr	r1, [fp, #-20]
    5ce4:	e1a02001 	mov	r2, r1
    5ce8:	e1a02282 	lsl	r2, r2, #5
    5cec:	e0612002 	rsb	r2, r1, r2
    5cf0:	e1a03302 	lsl	r3, r2, #6
    5cf4:	e0623003 	rsb	r3, r2, r3
    5cf8:	e1a03183 	lsl	r3, r3, #3
    5cfc:	e0833001 	add	r3, r3, r1
    5d00:	e1a02103 	lsl	r2, r3, #2
    5d04:	e0833002 	add	r3, r3, r2
    5d08:	e1a02103 	lsl	r2, r3, #2
    5d0c:	e0833002 	add	r3, r3, r2
    5d10:	e1a02103 	lsl	r2, r3, #2
    5d14:	e0833002 	add	r3, r3, r2
    5d18:	e1a03483 	lsl	r3, r3, #9
    5d1c:	e0633000 	rsb	r3, r3, r0
    5d20:	e50b3018 	str	r3, [fp, #-24]
    5d24:	e51b2018 	ldr	r2, [fp, #-24]
    5d28:	e59f3060 	ldr	r3, [pc, #96]	; 5d90 <xnarch_divrem_billion+0x104>
    5d2c:	e1520003 	cmp	r2, r3
    5d30:	9a00000b 	bls	5d64 <xnarch_divrem_billion+0xd8>
    5d34:	e24b2014 	sub	r2, fp, #20
    5d38:	e8920006 	ldm	r2, {r1, r2}
    5d3c:	e3a03001 	mov	r3, #1
    5d40:	e3a04000 	mov	r4, #0
    5d44:	e0933001 	adds	r3, r3, r1
    5d48:	e0a44002 	adc	r4, r4, r2
    5d4c:	e50b3014 	str	r3, [fp, #-20]
    5d50:	e50b4010 	str	r4, [fp, #-16]
    5d54:	e51b2018 	ldr	r2, [fp, #-24]
    5d58:	e59f3034 	ldr	r3, [pc, #52]	; 5d94 <xnarch_divrem_billion+0x108>
    5d5c:	e0823003 	add	r3, r2, r3
    5d60:	e50b3018 	str	r3, [fp, #-24]
    5d64:	e51b3028 	ldr	r3, [fp, #-40]	; 0x28
    5d68:	e51b2018 	ldr	r2, [fp, #-24]
    5d6c:	e5832000 	str	r2, [r3]
    5d70:	e24b4014 	sub	r4, fp, #20
    5d74:	e8940018 	ldm	r4, {r3, r4}
    5d78:	e1a00003 	mov	r0, r3
    5d7c:	e1a01004 	mov	r1, r4
    5d80:	e24bd008 	sub	sp, fp, #8
    5d84:	e8bd8810 	pop	{r4, fp, pc}
    5d88:	0000a7b8 			; <UNDEFINED> instruction: 0x0000a7b8
    5d8c:	0000a7ac 	andeq	sl, r0, ip, lsr #15
    5d90:	3b9ac9ff 	blcc	fe6b8594 <__bss_end__+0xfe6a7fec>
    5d94:	c4653600 	strbtgt	r3, [r5], #-1536	; 0x600

00005d98 <xnarch_init_timeconv>:
    5d98:	e92d4810 	push	{r4, fp, lr}
    5d9c:	e28db008 	add	fp, sp, #8
    5da0:	e24dd00c 	sub	sp, sp, #12
    5da4:	e50b0014 	str	r0, [fp, #-20]
    5da8:	e50b1010 	str	r1, [fp, #-16]
    5dac:	e59f208c 	ldr	r2, [pc, #140]	; 5e40 <xnarch_init_timeconv+0xa8>
    5db0:	e08f2002 	add	r2, pc, r2
    5db4:	e24b4014 	sub	r4, fp, #20
    5db8:	e8940018 	ldm	r4, {r3, r4}
    5dbc:	e8820018 	stm	r2, {r3, r4}
    5dc0:	e51b3014 	ldr	r3, [fp, #-20]
    5dc4:	e59f0078 	ldr	r0, [pc, #120]	; 5e44 <xnarch_init_timeconv+0xac>
    5dc8:	e1a01003 	mov	r1, r3
    5dcc:	e59f3074 	ldr	r3, [pc, #116]	; 5e48 <xnarch_init_timeconv+0xb0>
    5dd0:	e08f3003 	add	r3, pc, r3
    5dd4:	e1a02003 	mov	r2, r3
    5dd8:	e59f306c 	ldr	r3, [pc, #108]	; 5e4c <xnarch_init_timeconv+0xb4>
    5ddc:	e08f3003 	add	r3, pc, r3
    5de0:	ebfffeb7 	bl	58c4 <xnarch_init_llmulshft>
    5de4:	e59f3064 	ldr	r3, [pc, #100]	; 5e50 <xnarch_init_timeconv+0xb8>
    5de8:	e08f3003 	add	r3, pc, r3
    5dec:	e5933000 	ldr	r3, [r3]
    5df0:	e3a02001 	mov	r2, #1
    5df4:	e1a03312 	lsl	r3, r2, r3
    5df8:	e1a02003 	mov	r2, r3
    5dfc:	e59f3050 	ldr	r3, [pc, #80]	; 5e54 <xnarch_init_timeconv+0xbc>
    5e00:	e08f3003 	add	r3, pc, r3
    5e04:	e5933000 	ldr	r3, [r3]
    5e08:	e59f1048 	ldr	r1, [pc, #72]	; 5e58 <xnarch_init_timeconv+0xc0>
    5e0c:	e08f1001 	add	r1, pc, r1
    5e10:	e1a00001 	mov	r0, r1
    5e14:	e1a01002 	mov	r1, r2
    5e18:	e1a02003 	mov	r2, r3
    5e1c:	ebfffe81 	bl	5828 <xnarch_init_u32frac>
    5e20:	e59f3034 	ldr	r3, [pc, #52]	; 5e5c <xnarch_init_timeconv+0xc4>
    5e24:	e08f3003 	add	r3, pc, r3
    5e28:	e1a00003 	mov	r0, r3
    5e2c:	e3a01001 	mov	r1, #1
    5e30:	e59f200c 	ldr	r2, [pc, #12]	; 5e44 <xnarch_init_timeconv+0xac>
    5e34:	ebfffe7b 	bl	5828 <xnarch_init_u32frac>
    5e38:	e24bd008 	sub	sp, fp, #8
    5e3c:	e8bd8810 	pop	{r4, fp, pc}
    5e40:	0000a690 	muleq	r0, r0, r6
    5e44:	3b9aca00 	blcc	fe6b864c <__bss_end__+0xfe6a80a4>
    5e48:	0000a678 	andeq	sl, r0, r8, ror r6
    5e4c:	0000a670 	andeq	sl, r0, r0, ror r6
    5e50:	0000a664 	andeq	sl, r0, r4, ror #12
    5e54:	0000a648 	andeq	sl, r0, r8, asr #12
    5e58:	0000a644 	andeq	sl, r0, r4, asr #12
    5e5c:	0000a63c 	andeq	sl, r0, ip, lsr r6

00005e60 <xeno_init_timeconv_inner>:
    5e60:	e92d4818 	push	{r3, r4, fp, lr}
    5e64:	e28db00c 	add	fp, sp, #12
    5e68:	e59f3014 	ldr	r3, [pc, #20]	; 5e84 <xeno_init_timeconv_inner+0x24>
    5e6c:	e08f3003 	add	r3, pc, r3
    5e70:	e8930018 	ldm	r3, {r3, r4}
    5e74:	e1a00003 	mov	r0, r3
    5e78:	e1a01004 	mov	r1, r4
    5e7c:	ebffffc5 	bl	5d98 <xnarch_init_timeconv>
    5e80:	e8bd8818 	pop	{r3, r4, fp, pc}
    5e84:	0000a604 	andeq	sl, r0, r4, lsl #12

00005e88 <xeno_init_timeconv>:
    5e88:	e92d4890 	push	{r4, r7, fp, lr}
    5e8c:	e28db00c 	add	fp, sp, #12
    5e90:	e24dd028 	sub	sp, sp, #40	; 0x28
    5e94:	e50b0030 	str	r0, [fp, #-48]	; 0x30
    5e98:	e59fc0b8 	ldr	ip, [pc, #184]	; 5f58 <xeno_init_timeconv+0xd0>
    5e9c:	e08fc00c 	add	ip, pc, ip
    5ea0:	e59f30b4 	ldr	r3, [pc, #180]	; 5f5c <xeno_init_timeconv+0xd4>
    5ea4:	e50b3010 	str	r3, [fp, #-16]
    5ea8:	e51b3030 	ldr	r3, [fp, #-48]	; 0x30
    5eac:	e50b3014 	str	r3, [fp, #-20]
    5eb0:	e24b302c 	sub	r3, fp, #44	; 0x2c
    5eb4:	e50b3018 	str	r3, [fp, #-24]
    5eb8:	e51b0010 	ldr	r0, [fp, #-16]
    5ebc:	e51b1014 	ldr	r1, [fp, #-20]
    5ec0:	e51b2018 	ldr	r2, [fp, #-24]
    5ec4:	e59f7094 	ldr	r7, [pc, #148]	; 5f60 <xeno_init_timeconv+0xd8>
    5ec8:	ef000000 	svc	0x00000000
    5ecc:	e1a03000 	mov	r3, r0
    5ed0:	e50b301c 	str	r3, [fp, #-28]
    5ed4:	e51b301c 	ldr	r3, [fp, #-28]
    5ed8:	e3530000 	cmp	r3, #0
    5edc:	0a00000f 	beq	5f20 <xeno_init_timeconv+0x98>
    5ee0:	e59f307c 	ldr	r3, [pc, #124]	; 5f64 <xeno_init_timeconv+0xdc>
    5ee4:	e79c3003 	ldr	r3, [ip, r3]
    5ee8:	e5934000 	ldr	r4, [r3]
    5eec:	e51b301c 	ldr	r3, [fp, #-28]
    5ef0:	e2633000 	rsb	r3, r3, #0
    5ef4:	e1a00003 	mov	r0, r3
    5ef8:	ebffeecc 	bl	1a30 <_init+0x1dc>
    5efc:	e1a03000 	mov	r3, r0
    5f00:	e1a00004 	mov	r0, r4
    5f04:	e59f205c 	ldr	r2, [pc, #92]	; 5f68 <xeno_init_timeconv+0xe0>
    5f08:	e08f2002 	add	r2, pc, r2
    5f0c:	e1a01002 	mov	r1, r2
    5f10:	e1a02003 	mov	r2, r3
    5f14:	ebffeedd 	bl	1a90 <_init+0x23c>
    5f18:	e3a00001 	mov	r0, #1
    5f1c:	ebffeecf 	bl	1a60 <_init+0x20c>
    5f20:	e24b402c 	sub	r4, fp, #44	; 0x2c
    5f24:	e8940018 	ldm	r4, {r3, r4}
    5f28:	e59f203c 	ldr	r2, [pc, #60]	; 5f6c <xeno_init_timeconv+0xe4>
    5f2c:	e08f2002 	add	r2, pc, r2
    5f30:	e8820018 	stm	r2, {r3, r4}
    5f34:	e59f3034 	ldr	r3, [pc, #52]	; 5f70 <xeno_init_timeconv+0xe8>
    5f38:	e08f3003 	add	r3, pc, r3
    5f3c:	e1a00003 	mov	r0, r3
    5f40:	e59f302c 	ldr	r3, [pc, #44]	; 5f74 <xeno_init_timeconv+0xec>
    5f44:	e08f3003 	add	r3, pc, r3
    5f48:	e1a01003 	mov	r1, r3
    5f4c:	ebffeeba 	bl	1a3c <_init+0x1e8>
    5f50:	e24bd00c 	sub	sp, fp, #12
    5f54:	e8bd8890 	pop	{r4, r7, fp, pc}
    5f58:	0000a28c 	andeq	sl, r0, ip, lsl #5
    5f5c:	0400022b 	streq	r0, [r0], #-555	; 0x22b
    5f60:	000f0042 	andeq	r0, pc, r2, asr #32
    5f64:	00000158 	andeq	r0, r0, r8, asr r1
    5f68:	000020e0 	andeq	r2, r0, r0, ror #1
    5f6c:	0000a544 	andeq	sl, r0, r4, asr #10
    5f70:	0000a540 	andeq	sl, r0, r0, asr #10
    5f74:	ffffff14 			; <UNDEFINED> instruction: 0xffffff14

00005f78 <__real_malloc>:
    5f78:	e92d4800 	push	{fp, lr}
    5f7c:	e28db004 	add	fp, sp, #4
    5f80:	e24dd008 	sub	sp, sp, #8
    5f84:	e50b0008 	str	r0, [fp, #-8]
    5f88:	e51b0008 	ldr	r0, [fp, #-8]
    5f8c:	ebffeea1 	bl	1a18 <_init+0x1c4>
    5f90:	e1a03000 	mov	r3, r0
    5f94:	e1a00003 	mov	r0, r3
    5f98:	e24bd004 	sub	sp, fp, #4
    5f9c:	e8bd8800 	pop	{fp, pc}

00005fa0 <__real_free>:
    5fa0:	e92d4800 	push	{fp, lr}
    5fa4:	e28db004 	add	fp, sp, #4
    5fa8:	e24dd008 	sub	sp, sp, #8
    5fac:	e50b0008 	str	r0, [fp, #-8]
    5fb0:	e51b0008 	ldr	r0, [fp, #-8]
    5fb4:	ebffee49 	bl	18e0 <_init+0x8c>
    5fb8:	e24bd004 	sub	sp, fp, #4
    5fbc:	e8bd8800 	pop	{fp, pc}

00005fc0 <__real_gettimeofday>:
    5fc0:	e92d4800 	push	{fp, lr}
    5fc4:	e28db004 	add	fp, sp, #4
    5fc8:	e24dd008 	sub	sp, sp, #8
    5fcc:	e50b0008 	str	r0, [fp, #-8]
    5fd0:	e50b100c 	str	r1, [fp, #-12]
    5fd4:	e51b0008 	ldr	r0, [fp, #-8]
    5fd8:	e51b100c 	ldr	r1, [fp, #-12]
    5fdc:	ebffee81 	bl	19e8 <_init+0x194>
    5fe0:	e1a03000 	mov	r3, r0
    5fe4:	e1a00003 	mov	r0, r3
    5fe8:	e24bd004 	sub	sp, fp, #4
    5fec:	e8bd8800 	pop	{fp, pc}

00005ff0 <__real_clock_gettime>:
    5ff0:	e92d4800 	push	{fp, lr}
    5ff4:	e28db004 	add	fp, sp, #4
    5ff8:	e24dd008 	sub	sp, sp, #8
    5ffc:	e50b0008 	str	r0, [fp, #-8]
    6000:	e50b100c 	str	r1, [fp, #-12]
    6004:	e51b0008 	ldr	r0, [fp, #-8]
    6008:	e51b100c 	ldr	r1, [fp, #-12]
    600c:	ebffeef6 	bl	1bec <_init+0x398>
    6010:	e1a03000 	mov	r3, r0
    6014:	e1a00003 	mov	r0, r3
    6018:	e24bd004 	sub	sp, fp, #4
    601c:	e8bd8800 	pop	{fp, pc}

00006020 <__pthread_atfork>:
    6020:	e59f300c 	ldr	r3, [pc, #12]	; 6034 <__pthread_atfork+0x14>
    6024:	e08f3003 	add	r3, pc, r3
    6028:	e3530000 	cmp	r3, #0
    602c:	15933000 	ldrne	r3, [r3]
    6030:	eaffee4e 	b	1970 <_init+0x11c>
    6034:	0000a28c 	andeq	sl, r0, ip, lsl #5

00006038 <__aeabi_uidiv>:
    6038:	e2512001 	subs	r2, r1, #1
    603c:	012fff1e 	bxeq	lr
    6040:	3a000074 	bcc	6218 <__aeabi_uidiv+0x1e0>
    6044:	e1500001 	cmp	r0, r1
    6048:	9a00006b 	bls	61fc <__aeabi_uidiv+0x1c4>
    604c:	e1110002 	tst	r1, r2
    6050:	0a00006c 	beq	6208 <__aeabi_uidiv+0x1d0>
    6054:	e16f3f10 	clz	r3, r0
    6058:	e16f2f11 	clz	r2, r1
    605c:	e0423003 	sub	r3, r2, r3
    6060:	e273301f 	rsbs	r3, r3, #31
    6064:	10833083 	addne	r3, r3, r3, lsl #1
    6068:	e3a02000 	mov	r2, #0
    606c:	108ff103 	addne	pc, pc, r3, lsl #2
    6070:	e1a00000 	nop			; (mov r0, r0)
    6074:	e1500f81 	cmp	r0, r1, lsl #31
    6078:	e0a22002 	adc	r2, r2, r2
    607c:	20400f81 	subcs	r0, r0, r1, lsl #31
    6080:	e1500f01 	cmp	r0, r1, lsl #30
    6084:	e0a22002 	adc	r2, r2, r2
    6088:	20400f01 	subcs	r0, r0, r1, lsl #30
    608c:	e1500e81 	cmp	r0, r1, lsl #29
    6090:	e0a22002 	adc	r2, r2, r2
    6094:	20400e81 	subcs	r0, r0, r1, lsl #29
    6098:	e1500e01 	cmp	r0, r1, lsl #28
    609c:	e0a22002 	adc	r2, r2, r2
    60a0:	20400e01 	subcs	r0, r0, r1, lsl #28
    60a4:	e1500d81 	cmp	r0, r1, lsl #27
    60a8:	e0a22002 	adc	r2, r2, r2
    60ac:	20400d81 	subcs	r0, r0, r1, lsl #27
    60b0:	e1500d01 	cmp	r0, r1, lsl #26
    60b4:	e0a22002 	adc	r2, r2, r2
    60b8:	20400d01 	subcs	r0, r0, r1, lsl #26
    60bc:	e1500c81 	cmp	r0, r1, lsl #25
    60c0:	e0a22002 	adc	r2, r2, r2
    60c4:	20400c81 	subcs	r0, r0, r1, lsl #25
    60c8:	e1500c01 	cmp	r0, r1, lsl #24
    60cc:	e0a22002 	adc	r2, r2, r2
    60d0:	20400c01 	subcs	r0, r0, r1, lsl #24
    60d4:	e1500b81 	cmp	r0, r1, lsl #23
    60d8:	e0a22002 	adc	r2, r2, r2
    60dc:	20400b81 	subcs	r0, r0, r1, lsl #23
    60e0:	e1500b01 	cmp	r0, r1, lsl #22
    60e4:	e0a22002 	adc	r2, r2, r2
    60e8:	20400b01 	subcs	r0, r0, r1, lsl #22
    60ec:	e1500a81 	cmp	r0, r1, lsl #21
    60f0:	e0a22002 	adc	r2, r2, r2
    60f4:	20400a81 	subcs	r0, r0, r1, lsl #21
    60f8:	e1500a01 	cmp	r0, r1, lsl #20
    60fc:	e0a22002 	adc	r2, r2, r2
    6100:	20400a01 	subcs	r0, r0, r1, lsl #20
    6104:	e1500981 	cmp	r0, r1, lsl #19
    6108:	e0a22002 	adc	r2, r2, r2
    610c:	20400981 	subcs	r0, r0, r1, lsl #19
    6110:	e1500901 	cmp	r0, r1, lsl #18
    6114:	e0a22002 	adc	r2, r2, r2
    6118:	20400901 	subcs	r0, r0, r1, lsl #18
    611c:	e1500881 	cmp	r0, r1, lsl #17
    6120:	e0a22002 	adc	r2, r2, r2
    6124:	20400881 	subcs	r0, r0, r1, lsl #17
    6128:	e1500801 	cmp	r0, r1, lsl #16
    612c:	e0a22002 	adc	r2, r2, r2
    6130:	20400801 	subcs	r0, r0, r1, lsl #16
    6134:	e1500781 	cmp	r0, r1, lsl #15
    6138:	e0a22002 	adc	r2, r2, r2
    613c:	20400781 	subcs	r0, r0, r1, lsl #15
    6140:	e1500701 	cmp	r0, r1, lsl #14
    6144:	e0a22002 	adc	r2, r2, r2
    6148:	20400701 	subcs	r0, r0, r1, lsl #14
    614c:	e1500681 	cmp	r0, r1, lsl #13
    6150:	e0a22002 	adc	r2, r2, r2
    6154:	20400681 	subcs	r0, r0, r1, lsl #13
    6158:	e1500601 	cmp	r0, r1, lsl #12
    615c:	e0a22002 	adc	r2, r2, r2
    6160:	20400601 	subcs	r0, r0, r1, lsl #12
    6164:	e1500581 	cmp	r0, r1, lsl #11
    6168:	e0a22002 	adc	r2, r2, r2
    616c:	20400581 	subcs	r0, r0, r1, lsl #11
    6170:	e1500501 	cmp	r0, r1, lsl #10
    6174:	e0a22002 	adc	r2, r2, r2
    6178:	20400501 	subcs	r0, r0, r1, lsl #10
    617c:	e1500481 	cmp	r0, r1, lsl #9
    6180:	e0a22002 	adc	r2, r2, r2
    6184:	20400481 	subcs	r0, r0, r1, lsl #9
    6188:	e1500401 	cmp	r0, r1, lsl #8
    618c:	e0a22002 	adc	r2, r2, r2
    6190:	20400401 	subcs	r0, r0, r1, lsl #8
    6194:	e1500381 	cmp	r0, r1, lsl #7
    6198:	e0a22002 	adc	r2, r2, r2
    619c:	20400381 	subcs	r0, r0, r1, lsl #7
    61a0:	e1500301 	cmp	r0, r1, lsl #6
    61a4:	e0a22002 	adc	r2, r2, r2
    61a8:	20400301 	subcs	r0, r0, r1, lsl #6
    61ac:	e1500281 	cmp	r0, r1, lsl #5
    61b0:	e0a22002 	adc	r2, r2, r2
    61b4:	20400281 	subcs	r0, r0, r1, lsl #5
    61b8:	e1500201 	cmp	r0, r1, lsl #4
    61bc:	e0a22002 	adc	r2, r2, r2
    61c0:	20400201 	subcs	r0, r0, r1, lsl #4
    61c4:	e1500181 	cmp	r0, r1, lsl #3
    61c8:	e0a22002 	adc	r2, r2, r2
    61cc:	20400181 	subcs	r0, r0, r1, lsl #3
    61d0:	e1500101 	cmp	r0, r1, lsl #2
    61d4:	e0a22002 	adc	r2, r2, r2
    61d8:	20400101 	subcs	r0, r0, r1, lsl #2
    61dc:	e1500081 	cmp	r0, r1, lsl #1
    61e0:	e0a22002 	adc	r2, r2, r2
    61e4:	20400081 	subcs	r0, r0, r1, lsl #1
    61e8:	e1500001 	cmp	r0, r1
    61ec:	e0a22002 	adc	r2, r2, r2
    61f0:	20400001 	subcs	r0, r0, r1
    61f4:	e1a00002 	mov	r0, r2
    61f8:	e12fff1e 	bx	lr
    61fc:	03a00001 	moveq	r0, #1
    6200:	13a00000 	movne	r0, #0
    6204:	e12fff1e 	bx	lr
    6208:	e16f2f11 	clz	r2, r1
    620c:	e262201f 	rsb	r2, r2, #31
    6210:	e1a00230 	lsr	r0, r0, r2
    6214:	e12fff1e 	bx	lr
    6218:	e3500000 	cmp	r0, #0
    621c:	13e00000 	mvnne	r0, #0
    6220:	ea000016 	b	6280 <__aeabi_idiv0>

00006224 <__aeabi_uidivmod>:
    6224:	e3510000 	cmp	r1, #0
    6228:	0afffffa 	beq	6218 <__aeabi_uidiv+0x1e0>
    622c:	e92d4003 	push	{r0, r1, lr}
    6230:	ebffff80 	bl	6038 <__aeabi_uidiv>
    6234:	e8bd4006 	pop	{r1, r2, lr}
    6238:	e0030092 	mul	r3, r2, r0
    623c:	e0411003 	sub	r1, r1, r3
    6240:	e12fff1e 	bx	lr

00006244 <__aeabi_uldivmod>:
    6244:	e3530000 	cmp	r3, #0
    6248:	03520000 	cmpeq	r2, #0
    624c:	1a000004 	bne	6264 <__aeabi_uldivmod+0x20>
    6250:	e3510000 	cmp	r1, #0
    6254:	03500000 	cmpeq	r0, #0
    6258:	13e01000 	mvnne	r1, #0
    625c:	13e00000 	mvnne	r0, #0
    6260:	ea000006 	b	6280 <__aeabi_idiv0>
    6264:	e24dd008 	sub	sp, sp, #8
    6268:	e92d6000 	push	{sp, lr}
    626c:	eb000017 	bl	62d0 <__gnu_uldivmod_helper>
    6270:	e59de004 	ldr	lr, [sp, #4]
    6274:	e28dd008 	add	sp, sp, #8
    6278:	e8bd000c 	pop	{r2, r3}
    627c:	e12fff1e 	bx	lr

00006280 <__aeabi_idiv0>:
    6280:	e92d4002 	push	{r1, lr}
    6284:	e3a00008 	mov	r0, #8
    6288:	ebffed7c 	bl	1880 <_init+0x2c>
    628c:	e8bd8002 	pop	{r1, pc}

00006290 <__gnu_ldivmod_helper>:
    6290:	e92d45f8 	push	{r3, r4, r5, r6, r7, r8, sl, lr}
    6294:	e1a08002 	mov	r8, r2
    6298:	e1a0a003 	mov	sl, r3
    629c:	e1a06000 	mov	r6, r0
    62a0:	e1a07001 	mov	r7, r1
    62a4:	eb0003eb 	bl	7258 <__divdi3>
    62a8:	e0030198 	mul	r3, r8, r1
    62ac:	e1a02000 	mov	r2, r0
    62b0:	e0854098 	umull	r4, r5, r8, r0
    62b4:	e022329a 	mla	r2, sl, r2, r3
    62b8:	e59d3020 	ldr	r3, [sp, #32]
    62bc:	e0825005 	add	r5, r2, r5
    62c0:	e0564004 	subs	r4, r6, r4
    62c4:	e0c75005 	sbc	r5, r7, r5
    62c8:	e8830030 	stm	r3, {r4, r5}
    62cc:	e8bd85f8 	pop	{r3, r4, r5, r6, r7, r8, sl, pc}

000062d0 <__gnu_uldivmod_helper>:
    62d0:	e92d41f0 	push	{r4, r5, r6, r7, r8, lr}
    62d4:	e1a08002 	mov	r8, r2
    62d8:	e1a06000 	mov	r6, r0
    62dc:	e1a07001 	mov	r7, r1
    62e0:	e1a04003 	mov	r4, r3
    62e4:	eb000515 	bl	7740 <__udivdi3>
    62e8:	e0030490 	mul	r3, r0, r4
    62ec:	e0854890 	umull	r4, r5, r0, r8
    62f0:	e0283891 	mla	r8, r1, r8, r3
    62f4:	e59d3018 	ldr	r3, [sp, #24]
    62f8:	e0885005 	add	r5, r8, r5
    62fc:	e0564004 	subs	r4, r6, r4
    6300:	e0c75005 	sbc	r5, r7, r5
    6304:	e8830030 	stm	r3, {r4, r5}
    6308:	e8bd81f0 	pop	{r4, r5, r6, r7, r8, pc}

0000630c <__sync_fetch_and_add_4>:
    630c:	e92d40f8 	push	{r3, r4, r5, r6, r7, lr}
    6310:	e59f7028 	ldr	r7, [pc, #40]	; 6340 <__sync_fetch_and_add_4+0x34>
    6314:	e1a05000 	mov	r5, r0
    6318:	e1a06001 	mov	r6, r1
    631c:	e5954000 	ldr	r4, [r5]
    6320:	e1a02005 	mov	r2, r5
    6324:	e1a00004 	mov	r0, r4
    6328:	e0841006 	add	r1, r4, r6
    632c:	e12fff37 	blx	r7
    6330:	e3500000 	cmp	r0, #0
    6334:	1afffff8 	bne	631c <__sync_fetch_and_add_4+0x10>
    6338:	e1a00004 	mov	r0, r4
    633c:	e8bd80f8 	pop	{r3, r4, r5, r6, r7, pc}
    6340:	ffff0fc0 			; <UNDEFINED> instruction: 0xffff0fc0

00006344 <__sync_fetch_and_sub_4>:
    6344:	e92d40f8 	push	{r3, r4, r5, r6, r7, lr}
    6348:	e59f7028 	ldr	r7, [pc, #40]	; 6378 <__sync_fetch_and_sub_4+0x34>
    634c:	e1a05000 	mov	r5, r0
    6350:	e1a06001 	mov	r6, r1
    6354:	e5954000 	ldr	r4, [r5]
    6358:	e1a02005 	mov	r2, r5
    635c:	e1a00004 	mov	r0, r4
    6360:	e0661004 	rsb	r1, r6, r4
    6364:	e12fff37 	blx	r7
    6368:	e3500000 	cmp	r0, #0
    636c:	1afffff8 	bne	6354 <__sync_fetch_and_sub_4+0x10>
    6370:	e1a00004 	mov	r0, r4
    6374:	e8bd80f8 	pop	{r3, r4, r5, r6, r7, pc}
    6378:	ffff0fc0 			; <UNDEFINED> instruction: 0xffff0fc0

0000637c <__sync_fetch_and_or_4>:
    637c:	e92d40f8 	push	{r3, r4, r5, r6, r7, lr}
    6380:	e59f7028 	ldr	r7, [pc, #40]	; 63b0 <__sync_fetch_and_or_4+0x34>
    6384:	e1a05000 	mov	r5, r0
    6388:	e1a06001 	mov	r6, r1
    638c:	e5954000 	ldr	r4, [r5]
    6390:	e1a02005 	mov	r2, r5
    6394:	e1a00004 	mov	r0, r4
    6398:	e1861004 	orr	r1, r6, r4
    639c:	e12fff37 	blx	r7
    63a0:	e3500000 	cmp	r0, #0
    63a4:	1afffff8 	bne	638c <__sync_fetch_and_or_4+0x10>
    63a8:	e1a00004 	mov	r0, r4
    63ac:	e8bd80f8 	pop	{r3, r4, r5, r6, r7, pc}
    63b0:	ffff0fc0 			; <UNDEFINED> instruction: 0xffff0fc0

000063b4 <__sync_fetch_and_and_4>:
    63b4:	e92d40f8 	push	{r3, r4, r5, r6, r7, lr}
    63b8:	e59f7028 	ldr	r7, [pc, #40]	; 63e8 <__sync_fetch_and_and_4+0x34>
    63bc:	e1a05000 	mov	r5, r0
    63c0:	e1a06001 	mov	r6, r1
    63c4:	e5954000 	ldr	r4, [r5]
    63c8:	e1a02005 	mov	r2, r5
    63cc:	e1a00004 	mov	r0, r4
    63d0:	e0061004 	and	r1, r6, r4
    63d4:	e12fff37 	blx	r7
    63d8:	e3500000 	cmp	r0, #0
    63dc:	1afffff8 	bne	63c4 <__sync_fetch_and_and_4+0x10>
    63e0:	e1a00004 	mov	r0, r4
    63e4:	e8bd80f8 	pop	{r3, r4, r5, r6, r7, pc}
    63e8:	ffff0fc0 			; <UNDEFINED> instruction: 0xffff0fc0

000063ec <__sync_fetch_and_xor_4>:
    63ec:	e92d40f8 	push	{r3, r4, r5, r6, r7, lr}
    63f0:	e59f7028 	ldr	r7, [pc, #40]	; 6420 <__sync_fetch_and_xor_4+0x34>
    63f4:	e1a05000 	mov	r5, r0
    63f8:	e1a06001 	mov	r6, r1
    63fc:	e5954000 	ldr	r4, [r5]
    6400:	e1a02005 	mov	r2, r5
    6404:	e1a00004 	mov	r0, r4
    6408:	e0261004 	eor	r1, r6, r4
    640c:	e12fff37 	blx	r7
    6410:	e3500000 	cmp	r0, #0
    6414:	1afffff8 	bne	63fc <__sync_fetch_and_xor_4+0x10>
    6418:	e1a00004 	mov	r0, r4
    641c:	e8bd80f8 	pop	{r3, r4, r5, r6, r7, pc}
    6420:	ffff0fc0 			; <UNDEFINED> instruction: 0xffff0fc0

00006424 <__sync_fetch_and_nand_4>:
    6424:	e92d40f8 	push	{r3, r4, r5, r6, r7, lr}
    6428:	e59f702c 	ldr	r7, [pc, #44]	; 645c <__sync_fetch_and_nand_4+0x38>
    642c:	e1a05000 	mov	r5, r0
    6430:	e1a06001 	mov	r6, r1
    6434:	e5954000 	ldr	r4, [r5]
    6438:	e1a02005 	mov	r2, r5
    643c:	e0061004 	and	r1, r6, r4
    6440:	e1a00004 	mov	r0, r4
    6444:	e1e01001 	mvn	r1, r1
    6448:	e12fff37 	blx	r7
    644c:	e3500000 	cmp	r0, #0
    6450:	1afffff7 	bne	6434 <__sync_fetch_and_nand_4+0x10>
    6454:	e1a00004 	mov	r0, r4
    6458:	e8bd80f8 	pop	{r3, r4, r5, r6, r7, pc}
    645c:	ffff0fc0 			; <UNDEFINED> instruction: 0xffff0fc0

00006460 <__sync_fetch_and_add_2>:
    6460:	e92d47f0 	push	{r4, r5, r6, r7, r8, r9, sl, lr}
    6464:	e2005003 	and	r5, r0, #3
    6468:	e59f404c 	ldr	r4, [pc, #76]	; 64bc <__sync_fetch_and_add_2+0x5c>
    646c:	e1a05185 	lsl	r5, r5, #3
    6470:	e1a04514 	lsl	r4, r4, r5
    6474:	e59f9044 	ldr	r9, [pc, #68]	; 64c0 <__sync_fetch_and_add_2+0x60>
    6478:	e1a0a001 	mov	sl, r1
    647c:	e3c07003 	bic	r7, r0, #3
    6480:	e1e08004 	mvn	r8, r4
    6484:	e5970000 	ldr	r0, [r7]
    6488:	e1a02007 	mov	r2, r7
    648c:	e0006004 	and	r6, r0, r4
    6490:	e1a06536 	lsr	r6, r6, r5
    6494:	e086100a 	add	r1, r6, sl
    6498:	e0041511 	and	r1, r4, r1, lsl r5
    649c:	e0083000 	and	r3, r8, r0
    64a0:	e1811003 	orr	r1, r1, r3
    64a4:	e12fff39 	blx	r9
    64a8:	e3500000 	cmp	r0, #0
    64ac:	1afffff4 	bne	6484 <__sync_fetch_and_add_2+0x24>
    64b0:	e1a00806 	lsl	r0, r6, #16
    64b4:	e1a00820 	lsr	r0, r0, #16
    64b8:	e8bd87f0 	pop	{r4, r5, r6, r7, r8, r9, sl, pc}
    64bc:	0000ffff 	strdeq	pc, [r0], -pc	; <UNPREDICTABLE>
    64c0:	ffff0fc0 			; <UNDEFINED> instruction: 0xffff0fc0

000064c4 <__sync_fetch_and_sub_2>:
    64c4:	e92d47f0 	push	{r4, r5, r6, r7, r8, r9, sl, lr}
    64c8:	e2005003 	and	r5, r0, #3
    64cc:	e59f404c 	ldr	r4, [pc, #76]	; 6520 <__sync_fetch_and_sub_2+0x5c>
    64d0:	e1a05185 	lsl	r5, r5, #3
    64d4:	e1a04514 	lsl	r4, r4, r5
    64d8:	e59f9044 	ldr	r9, [pc, #68]	; 6524 <__sync_fetch_and_sub_2+0x60>
    64dc:	e1a0a001 	mov	sl, r1
    64e0:	e3c07003 	bic	r7, r0, #3
    64e4:	e1e08004 	mvn	r8, r4
    64e8:	e5970000 	ldr	r0, [r7]
    64ec:	e1a02007 	mov	r2, r7
    64f0:	e0006004 	and	r6, r0, r4
    64f4:	e1a06536 	lsr	r6, r6, r5
    64f8:	e06a1006 	rsb	r1, sl, r6
    64fc:	e0041511 	and	r1, r4, r1, lsl r5
    6500:	e0083000 	and	r3, r8, r0
    6504:	e1811003 	orr	r1, r1, r3
    6508:	e12fff39 	blx	r9
    650c:	e3500000 	cmp	r0, #0
    6510:	1afffff4 	bne	64e8 <__sync_fetch_and_sub_2+0x24>
    6514:	e1a00806 	lsl	r0, r6, #16
    6518:	e1a00820 	lsr	r0, r0, #16
    651c:	e8bd87f0 	pop	{r4, r5, r6, r7, r8, r9, sl, pc}
    6520:	0000ffff 	strdeq	pc, [r0], -pc	; <UNPREDICTABLE>
    6524:	ffff0fc0 			; <UNDEFINED> instruction: 0xffff0fc0

00006528 <__sync_fetch_and_or_2>:
    6528:	e92d47f0 	push	{r4, r5, r6, r7, r8, r9, sl, lr}
    652c:	e2005003 	and	r5, r0, #3
    6530:	e59f404c 	ldr	r4, [pc, #76]	; 6584 <__sync_fetch_and_or_2+0x5c>
    6534:	e1a05185 	lsl	r5, r5, #3
    6538:	e1a04514 	lsl	r4, r4, r5
    653c:	e59f9044 	ldr	r9, [pc, #68]	; 6588 <__sync_fetch_and_or_2+0x60>
    6540:	e1a0a001 	mov	sl, r1
    6544:	e3c07003 	bic	r7, r0, #3
    6548:	e1e08004 	mvn	r8, r4
    654c:	e5970000 	ldr	r0, [r7]
    6550:	e1a02007 	mov	r2, r7
    6554:	e0006004 	and	r6, r0, r4
    6558:	e1a06536 	lsr	r6, r6, r5
    655c:	e186100a 	orr	r1, r6, sl
    6560:	e0041511 	and	r1, r4, r1, lsl r5
    6564:	e0083000 	and	r3, r8, r0
    6568:	e1811003 	orr	r1, r1, r3
    656c:	e12fff39 	blx	r9
    6570:	e3500000 	cmp	r0, #0
    6574:	1afffff4 	bne	654c <__sync_fetch_and_or_2+0x24>
    6578:	e1a00806 	lsl	r0, r6, #16
    657c:	e1a00820 	lsr	r0, r0, #16
    6580:	e8bd87f0 	pop	{r4, r5, r6, r7, r8, r9, sl, pc}
    6584:	0000ffff 	strdeq	pc, [r0], -pc	; <UNPREDICTABLE>
    6588:	ffff0fc0 			; <UNDEFINED> instruction: 0xffff0fc0

0000658c <__sync_fetch_and_and_2>:
    658c:	e92d47f0 	push	{r4, r5, r6, r7, r8, r9, sl, lr}
    6590:	e2005003 	and	r5, r0, #3
    6594:	e59f404c 	ldr	r4, [pc, #76]	; 65e8 <__sync_fetch_and_and_2+0x5c>
    6598:	e1a05185 	lsl	r5, r5, #3
    659c:	e1a04514 	lsl	r4, r4, r5
    65a0:	e59f9044 	ldr	r9, [pc, #68]	; 65ec <__sync_fetch_and_and_2+0x60>
    65a4:	e1a0a001 	mov	sl, r1
    65a8:	e3c07003 	bic	r7, r0, #3
    65ac:	e1e08004 	mvn	r8, r4
    65b0:	e5970000 	ldr	r0, [r7]
    65b4:	e1a02007 	mov	r2, r7
    65b8:	e0006004 	and	r6, r0, r4
    65bc:	e1a06536 	lsr	r6, r6, r5
    65c0:	e006100a 	and	r1, r6, sl
    65c4:	e0041511 	and	r1, r4, r1, lsl r5
    65c8:	e0083000 	and	r3, r8, r0
    65cc:	e1811003 	orr	r1, r1, r3
    65d0:	e12fff39 	blx	r9
    65d4:	e3500000 	cmp	r0, #0
    65d8:	1afffff4 	bne	65b0 <__sync_fetch_and_and_2+0x24>
    65dc:	e1a00806 	lsl	r0, r6, #16
    65e0:	e1a00820 	lsr	r0, r0, #16
    65e4:	e8bd87f0 	pop	{r4, r5, r6, r7, r8, r9, sl, pc}
    65e8:	0000ffff 	strdeq	pc, [r0], -pc	; <UNPREDICTABLE>
    65ec:	ffff0fc0 			; <UNDEFINED> instruction: 0xffff0fc0

000065f0 <__sync_fetch_and_xor_2>:
    65f0:	e92d47f0 	push	{r4, r5, r6, r7, r8, r9, sl, lr}
    65f4:	e2005003 	and	r5, r0, #3
    65f8:	e59f404c 	ldr	r4, [pc, #76]	; 664c <__sync_fetch_and_xor_2+0x5c>
    65fc:	e1a05185 	lsl	r5, r5, #3
    6600:	e1a04514 	lsl	r4, r4, r5
    6604:	e59f9044 	ldr	r9, [pc, #68]	; 6650 <__sync_fetch_and_xor_2+0x60>
    6608:	e1a0a001 	mov	sl, r1
    660c:	e3c07003 	bic	r7, r0, #3
    6610:	e1e08004 	mvn	r8, r4
    6614:	e5970000 	ldr	r0, [r7]
    6618:	e1a02007 	mov	r2, r7
    661c:	e0006004 	and	r6, r0, r4
    6620:	e1a06536 	lsr	r6, r6, r5
    6624:	e026100a 	eor	r1, r6, sl
    6628:	e0041511 	and	r1, r4, r1, lsl r5
    662c:	e0083000 	and	r3, r8, r0
    6630:	e1811003 	orr	r1, r1, r3
    6634:	e12fff39 	blx	r9
    6638:	e3500000 	cmp	r0, #0
    663c:	1afffff4 	bne	6614 <__sync_fetch_and_xor_2+0x24>
    6640:	e1a00806 	lsl	r0, r6, #16
    6644:	e1a00820 	lsr	r0, r0, #16
    6648:	e8bd87f0 	pop	{r4, r5, r6, r7, r8, r9, sl, pc}
    664c:	0000ffff 	strdeq	pc, [r0], -pc	; <UNPREDICTABLE>
    6650:	ffff0fc0 			; <UNDEFINED> instruction: 0xffff0fc0

00006654 <__sync_fetch_and_nand_2>:
    6654:	e92d47f0 	push	{r4, r5, r6, r7, r8, r9, sl, lr}
    6658:	e2005003 	and	r5, r0, #3
    665c:	e59f4050 	ldr	r4, [pc, #80]	; 66b4 <__sync_fetch_and_nand_2+0x60>
    6660:	e1a05185 	lsl	r5, r5, #3
    6664:	e1a04514 	lsl	r4, r4, r5
    6668:	e59f9048 	ldr	r9, [pc, #72]	; 66b8 <__sync_fetch_and_nand_2+0x64>
    666c:	e1a0a001 	mov	sl, r1
    6670:	e3c07003 	bic	r7, r0, #3
    6674:	e1e08004 	mvn	r8, r4
    6678:	e5970000 	ldr	r0, [r7]
    667c:	e1a02007 	mov	r2, r7
    6680:	e0006004 	and	r6, r0, r4
    6684:	e1a06536 	lsr	r6, r6, r5
    6688:	e006100a 	and	r1, r6, sl
    668c:	e1e01001 	mvn	r1, r1
    6690:	e0041511 	and	r1, r4, r1, lsl r5
    6694:	e0083000 	and	r3, r8, r0
    6698:	e1811003 	orr	r1, r1, r3
    669c:	e12fff39 	blx	r9
    66a0:	e3500000 	cmp	r0, #0
    66a4:	1afffff3 	bne	6678 <__sync_fetch_and_nand_2+0x24>
    66a8:	e1a00806 	lsl	r0, r6, #16
    66ac:	e1a00820 	lsr	r0, r0, #16
    66b0:	e8bd87f0 	pop	{r4, r5, r6, r7, r8, r9, sl, pc}
    66b4:	0000ffff 	strdeq	pc, [r0], -pc	; <UNPREDICTABLE>
    66b8:	ffff0fc0 			; <UNDEFINED> instruction: 0xffff0fc0

000066bc <__sync_fetch_and_add_1>:
    66bc:	e92d47f0 	push	{r4, r5, r6, r7, r8, r9, sl, lr}
    66c0:	e2005003 	and	r5, r0, #3
    66c4:	e1a05185 	lsl	r5, r5, #3
    66c8:	e3a040ff 	mov	r4, #255	; 0xff
    66cc:	e1a04514 	lsl	r4, r4, r5
    66d0:	e59f903c 	ldr	r9, [pc, #60]	; 6714 <__sync_fetch_and_add_1+0x58>
    66d4:	e1a0a001 	mov	sl, r1
    66d8:	e3c07003 	bic	r7, r0, #3
    66dc:	e1e08004 	mvn	r8, r4
    66e0:	e5970000 	ldr	r0, [r7]
    66e4:	e1a02007 	mov	r2, r7
    66e8:	e0006004 	and	r6, r0, r4
    66ec:	e1a06536 	lsr	r6, r6, r5
    66f0:	e086100a 	add	r1, r6, sl
    66f4:	e0041511 	and	r1, r4, r1, lsl r5
    66f8:	e0083000 	and	r3, r8, r0
    66fc:	e1811003 	orr	r1, r1, r3
    6700:	e12fff39 	blx	r9
    6704:	e3500000 	cmp	r0, #0
    6708:	1afffff4 	bne	66e0 <__sync_fetch_and_add_1+0x24>
    670c:	e20600ff 	and	r0, r6, #255	; 0xff
    6710:	e8bd87f0 	pop	{r4, r5, r6, r7, r8, r9, sl, pc}
    6714:	ffff0fc0 			; <UNDEFINED> instruction: 0xffff0fc0

00006718 <__sync_fetch_and_sub_1>:
    6718:	e92d47f0 	push	{r4, r5, r6, r7, r8, r9, sl, lr}
    671c:	e2005003 	and	r5, r0, #3
    6720:	e1a05185 	lsl	r5, r5, #3
    6724:	e3a040ff 	mov	r4, #255	; 0xff
    6728:	e1a04514 	lsl	r4, r4, r5
    672c:	e59f903c 	ldr	r9, [pc, #60]	; 6770 <__sync_fetch_and_sub_1+0x58>
    6730:	e1a0a001 	mov	sl, r1
    6734:	e3c07003 	bic	r7, r0, #3
    6738:	e1e08004 	mvn	r8, r4
    673c:	e5970000 	ldr	r0, [r7]
    6740:	e1a02007 	mov	r2, r7
    6744:	e0006004 	and	r6, r0, r4
    6748:	e1a06536 	lsr	r6, r6, r5
    674c:	e06a1006 	rsb	r1, sl, r6
    6750:	e0041511 	and	r1, r4, r1, lsl r5
    6754:	e0083000 	and	r3, r8, r0
    6758:	e1811003 	orr	r1, r1, r3
    675c:	e12fff39 	blx	r9
    6760:	e3500000 	cmp	r0, #0
    6764:	1afffff4 	bne	673c <__sync_fetch_and_sub_1+0x24>
    6768:	e20600ff 	and	r0, r6, #255	; 0xff
    676c:	e8bd87f0 	pop	{r4, r5, r6, r7, r8, r9, sl, pc}
    6770:	ffff0fc0 			; <UNDEFINED> instruction: 0xffff0fc0

00006774 <__sync_fetch_and_or_1>:
    6774:	e92d47f0 	push	{r4, r5, r6, r7, r8, r9, sl, lr}
    6778:	e2005003 	and	r5, r0, #3
    677c:	e1a05185 	lsl	r5, r5, #3
    6780:	e3a040ff 	mov	r4, #255	; 0xff
    6784:	e1a04514 	lsl	r4, r4, r5
    6788:	e59f903c 	ldr	r9, [pc, #60]	; 67cc <__sync_fetch_and_or_1+0x58>
    678c:	e1a0a001 	mov	sl, r1
    6790:	e3c07003 	bic	r7, r0, #3
    6794:	e1e08004 	mvn	r8, r4
    6798:	e5970000 	ldr	r0, [r7]
    679c:	e1a02007 	mov	r2, r7
    67a0:	e0006004 	and	r6, r0, r4
    67a4:	e1a06536 	lsr	r6, r6, r5
    67a8:	e186100a 	orr	r1, r6, sl
    67ac:	e0041511 	and	r1, r4, r1, lsl r5
    67b0:	e0083000 	and	r3, r8, r0
    67b4:	e1811003 	orr	r1, r1, r3
    67b8:	e12fff39 	blx	r9
    67bc:	e3500000 	cmp	r0, #0
    67c0:	1afffff4 	bne	6798 <__sync_fetch_and_or_1+0x24>
    67c4:	e20600ff 	and	r0, r6, #255	; 0xff
    67c8:	e8bd87f0 	pop	{r4, r5, r6, r7, r8, r9, sl, pc}
    67cc:	ffff0fc0 			; <UNDEFINED> instruction: 0xffff0fc0

000067d0 <__sync_fetch_and_and_1>:
    67d0:	e92d47f0 	push	{r4, r5, r6, r7, r8, r9, sl, lr}
    67d4:	e2005003 	and	r5, r0, #3
    67d8:	e1a05185 	lsl	r5, r5, #3
    67dc:	e3a040ff 	mov	r4, #255	; 0xff
    67e0:	e1a04514 	lsl	r4, r4, r5
    67e4:	e59f903c 	ldr	r9, [pc, #60]	; 6828 <__sync_fetch_and_and_1+0x58>
    67e8:	e1a0a001 	mov	sl, r1
    67ec:	e3c07003 	bic	r7, r0, #3
    67f0:	e1e08004 	mvn	r8, r4
    67f4:	e5970000 	ldr	r0, [r7]
    67f8:	e1a02007 	mov	r2, r7
    67fc:	e0006004 	and	r6, r0, r4
    6800:	e1a06536 	lsr	r6, r6, r5
    6804:	e006100a 	and	r1, r6, sl
    6808:	e0041511 	and	r1, r4, r1, lsl r5
    680c:	e0083000 	and	r3, r8, r0
    6810:	e1811003 	orr	r1, r1, r3
    6814:	e12fff39 	blx	r9
    6818:	e3500000 	cmp	r0, #0
    681c:	1afffff4 	bne	67f4 <__sync_fetch_and_and_1+0x24>
    6820:	e20600ff 	and	r0, r6, #255	; 0xff
    6824:	e8bd87f0 	pop	{r4, r5, r6, r7, r8, r9, sl, pc}
    6828:	ffff0fc0 			; <UNDEFINED> instruction: 0xffff0fc0

0000682c <__sync_fetch_and_xor_1>:
    682c:	e92d47f0 	push	{r4, r5, r6, r7, r8, r9, sl, lr}
    6830:	e2005003 	and	r5, r0, #3
    6834:	e1a05185 	lsl	r5, r5, #3
    6838:	e3a040ff 	mov	r4, #255	; 0xff
    683c:	e1a04514 	lsl	r4, r4, r5
    6840:	e59f903c 	ldr	r9, [pc, #60]	; 6884 <__sync_fetch_and_xor_1+0x58>
    6844:	e1a0a001 	mov	sl, r1
    6848:	e3c07003 	bic	r7, r0, #3
    684c:	e1e08004 	mvn	r8, r4
    6850:	e5970000 	ldr	r0, [r7]
    6854:	e1a02007 	mov	r2, r7
    6858:	e0006004 	and	r6, r0, r4
    685c:	e1a06536 	lsr	r6, r6, r5
    6860:	e026100a 	eor	r1, r6, sl
    6864:	e0041511 	and	r1, r4, r1, lsl r5
    6868:	e0083000 	and	r3, r8, r0
    686c:	e1811003 	orr	r1, r1, r3
    6870:	e12fff39 	blx	r9
    6874:	e3500000 	cmp	r0, #0
    6878:	1afffff4 	bne	6850 <__sync_fetch_and_xor_1+0x24>
    687c:	e20600ff 	and	r0, r6, #255	; 0xff
    6880:	e8bd87f0 	pop	{r4, r5, r6, r7, r8, r9, sl, pc}
    6884:	ffff0fc0 			; <UNDEFINED> instruction: 0xffff0fc0

00006888 <__sync_fetch_and_nand_1>:
    6888:	e92d47f0 	push	{r4, r5, r6, r7, r8, r9, sl, lr}
    688c:	e2005003 	and	r5, r0, #3
    6890:	e1a05185 	lsl	r5, r5, #3
    6894:	e3a040ff 	mov	r4, #255	; 0xff
    6898:	e1a04514 	lsl	r4, r4, r5
    689c:	e59f9040 	ldr	r9, [pc, #64]	; 68e4 <__sync_fetch_and_nand_1+0x5c>
    68a0:	e1a0a001 	mov	sl, r1
    68a4:	e3c07003 	bic	r7, r0, #3
    68a8:	e1e08004 	mvn	r8, r4
    68ac:	e5970000 	ldr	r0, [r7]
    68b0:	e1a02007 	mov	r2, r7
    68b4:	e0006004 	and	r6, r0, r4
    68b8:	e1a06536 	lsr	r6, r6, r5
    68bc:	e006100a 	and	r1, r6, sl
    68c0:	e1e01001 	mvn	r1, r1
    68c4:	e0041511 	and	r1, r4, r1, lsl r5
    68c8:	e0083000 	and	r3, r8, r0
    68cc:	e1811003 	orr	r1, r1, r3
    68d0:	e12fff39 	blx	r9
    68d4:	e3500000 	cmp	r0, #0
    68d8:	1afffff3 	bne	68ac <__sync_fetch_and_nand_1+0x24>
    68dc:	e20600ff 	and	r0, r6, #255	; 0xff
    68e0:	e8bd87f0 	pop	{r4, r5, r6, r7, r8, r9, sl, pc}
    68e4:	ffff0fc0 			; <UNDEFINED> instruction: 0xffff0fc0

000068e8 <__sync_add_and_fetch_4>:
    68e8:	e92d40f8 	push	{r3, r4, r5, r6, r7, lr}
    68ec:	e59f7028 	ldr	r7, [pc, #40]	; 691c <__sync_add_and_fetch_4+0x34>
    68f0:	e1a05000 	mov	r5, r0
    68f4:	e1a06001 	mov	r6, r1
    68f8:	e5950000 	ldr	r0, [r5]
    68fc:	e1a02005 	mov	r2, r5
    6900:	e0804006 	add	r4, r0, r6
    6904:	e1a01004 	mov	r1, r4
    6908:	e12fff37 	blx	r7
    690c:	e3500000 	cmp	r0, #0
    6910:	1afffff8 	bne	68f8 <__sync_add_and_fetch_4+0x10>
    6914:	e1a00004 	mov	r0, r4
    6918:	e8bd80f8 	pop	{r3, r4, r5, r6, r7, pc}
    691c:	ffff0fc0 			; <UNDEFINED> instruction: 0xffff0fc0

00006920 <__sync_sub_and_fetch_4>:
    6920:	e92d40f8 	push	{r3, r4, r5, r6, r7, lr}
    6924:	e59f7028 	ldr	r7, [pc, #40]	; 6954 <__sync_sub_and_fetch_4+0x34>
    6928:	e1a05000 	mov	r5, r0
    692c:	e1a06001 	mov	r6, r1
    6930:	e5950000 	ldr	r0, [r5]
    6934:	e1a02005 	mov	r2, r5
    6938:	e0664000 	rsb	r4, r6, r0
    693c:	e1a01004 	mov	r1, r4
    6940:	e12fff37 	blx	r7
    6944:	e3500000 	cmp	r0, #0
    6948:	1afffff8 	bne	6930 <__sync_sub_and_fetch_4+0x10>
    694c:	e1a00004 	mov	r0, r4
    6950:	e8bd80f8 	pop	{r3, r4, r5, r6, r7, pc}
    6954:	ffff0fc0 			; <UNDEFINED> instruction: 0xffff0fc0

00006958 <__sync_or_and_fetch_4>:
    6958:	e92d40f8 	push	{r3, r4, r5, r6, r7, lr}
    695c:	e59f7028 	ldr	r7, [pc, #40]	; 698c <__sync_or_and_fetch_4+0x34>
    6960:	e1a05000 	mov	r5, r0
    6964:	e1a06001 	mov	r6, r1
    6968:	e5950000 	ldr	r0, [r5]
    696c:	e1a02005 	mov	r2, r5
    6970:	e1864000 	orr	r4, r6, r0
    6974:	e1a01004 	mov	r1, r4
    6978:	e12fff37 	blx	r7
    697c:	e3500000 	cmp	r0, #0
    6980:	1afffff8 	bne	6968 <__sync_or_and_fetch_4+0x10>
    6984:	e1a00004 	mov	r0, r4
    6988:	e8bd80f8 	pop	{r3, r4, r5, r6, r7, pc}
    698c:	ffff0fc0 			; <UNDEFINED> instruction: 0xffff0fc0

00006990 <__sync_and_and_fetch_4>:
    6990:	e92d40f8 	push	{r3, r4, r5, r6, r7, lr}
    6994:	e59f7028 	ldr	r7, [pc, #40]	; 69c4 <__sync_and_and_fetch_4+0x34>
    6998:	e1a05000 	mov	r5, r0
    699c:	e1a06001 	mov	r6, r1
    69a0:	e5950000 	ldr	r0, [r5]
    69a4:	e1a02005 	mov	r2, r5
    69a8:	e0064000 	and	r4, r6, r0
    69ac:	e1a01004 	mov	r1, r4
    69b0:	e12fff37 	blx	r7
    69b4:	e3500000 	cmp	r0, #0
    69b8:	1afffff8 	bne	69a0 <__sync_and_and_fetch_4+0x10>
    69bc:	e1a00004 	mov	r0, r4
    69c0:	e8bd80f8 	pop	{r3, r4, r5, r6, r7, pc}
    69c4:	ffff0fc0 			; <UNDEFINED> instruction: 0xffff0fc0

000069c8 <__sync_xor_and_fetch_4>:
    69c8:	e92d40f8 	push	{r3, r4, r5, r6, r7, lr}
    69cc:	e59f7028 	ldr	r7, [pc, #40]	; 69fc <__sync_xor_and_fetch_4+0x34>
    69d0:	e1a05000 	mov	r5, r0
    69d4:	e1a06001 	mov	r6, r1
    69d8:	e5950000 	ldr	r0, [r5]
    69dc:	e1a02005 	mov	r2, r5
    69e0:	e0264000 	eor	r4, r6, r0
    69e4:	e1a01004 	mov	r1, r4
    69e8:	e12fff37 	blx	r7
    69ec:	e3500000 	cmp	r0, #0
    69f0:	1afffff8 	bne	69d8 <__sync_xor_and_fetch_4+0x10>
    69f4:	e1a00004 	mov	r0, r4
    69f8:	e8bd80f8 	pop	{r3, r4, r5, r6, r7, pc}
    69fc:	ffff0fc0 			; <UNDEFINED> instruction: 0xffff0fc0

00006a00 <__sync_nand_and_fetch_4>:
    6a00:	e92d40f8 	push	{r3, r4, r5, r6, r7, lr}
    6a04:	e59f702c 	ldr	r7, [pc, #44]	; 6a38 <__sync_nand_and_fetch_4+0x38>
    6a08:	e1a05000 	mov	r5, r0
    6a0c:	e1a06001 	mov	r6, r1
    6a10:	e5950000 	ldr	r0, [r5]
    6a14:	e1a02005 	mov	r2, r5
    6a18:	e0064000 	and	r4, r6, r0
    6a1c:	e1e04004 	mvn	r4, r4
    6a20:	e1a01004 	mov	r1, r4
    6a24:	e12fff37 	blx	r7
    6a28:	e3500000 	cmp	r0, #0
    6a2c:	1afffff7 	bne	6a10 <__sync_nand_and_fetch_4+0x10>
    6a30:	e1a00004 	mov	r0, r4
    6a34:	e8bd80f8 	pop	{r3, r4, r5, r6, r7, pc}
    6a38:	ffff0fc0 			; <UNDEFINED> instruction: 0xffff0fc0

00006a3c <__sync_add_and_fetch_2>:
    6a3c:	e92d47f0 	push	{r4, r5, r6, r7, r8, r9, sl, lr}
    6a40:	e2004003 	and	r4, r0, #3
    6a44:	e59f5054 	ldr	r5, [pc, #84]	; 6aa0 <__sync_add_and_fetch_2+0x64>
    6a48:	e1a04184 	lsl	r4, r4, #3
    6a4c:	e1a05415 	lsl	r5, r5, r4
    6a50:	e59f904c 	ldr	r9, [pc, #76]	; 6aa4 <__sync_add_and_fetch_2+0x68>
    6a54:	e1a0a001 	mov	sl, r1
    6a58:	e3c07003 	bic	r7, r0, #3
    6a5c:	e1e08005 	mvn	r8, r5
    6a60:	e5970000 	ldr	r0, [r7]
    6a64:	e1a02007 	mov	r2, r7
    6a68:	e0006005 	and	r6, r0, r5
    6a6c:	e08a6436 	add	r6, sl, r6, lsr r4
    6a70:	e0056416 	and	r6, r5, r6, lsl r4
    6a74:	e0083000 	and	r3, r8, r0
    6a78:	e1866003 	orr	r6, r6, r3
    6a7c:	e1a01006 	mov	r1, r6
    6a80:	e12fff39 	blx	r9
    6a84:	e3500000 	cmp	r0, #0
    6a88:	1afffff4 	bne	6a60 <__sync_add_and_fetch_2+0x24>
    6a8c:	e0065005 	and	r5, r6, r5
    6a90:	e1a04435 	lsr	r4, r5, r4
    6a94:	e1a00804 	lsl	r0, r4, #16
    6a98:	e1a00820 	lsr	r0, r0, #16
    6a9c:	e8bd87f0 	pop	{r4, r5, r6, r7, r8, r9, sl, pc}
    6aa0:	0000ffff 	strdeq	pc, [r0], -pc	; <UNPREDICTABLE>
    6aa4:	ffff0fc0 			; <UNDEFINED> instruction: 0xffff0fc0

00006aa8 <__sync_sub_and_fetch_2>:
    6aa8:	e92d47f0 	push	{r4, r5, r6, r7, r8, r9, sl, lr}
    6aac:	e2004003 	and	r4, r0, #3
    6ab0:	e59f5054 	ldr	r5, [pc, #84]	; 6b0c <__sync_sub_and_fetch_2+0x64>
    6ab4:	e1a04184 	lsl	r4, r4, #3
    6ab8:	e1a05415 	lsl	r5, r5, r4
    6abc:	e59f904c 	ldr	r9, [pc, #76]	; 6b10 <__sync_sub_and_fetch_2+0x68>
    6ac0:	e1a0a001 	mov	sl, r1
    6ac4:	e3c07003 	bic	r7, r0, #3
    6ac8:	e1e08005 	mvn	r8, r5
    6acc:	e5970000 	ldr	r0, [r7]
    6ad0:	e1a02007 	mov	r2, r7
    6ad4:	e0006005 	and	r6, r0, r5
    6ad8:	e06a6436 	rsb	r6, sl, r6, lsr r4
    6adc:	e0056416 	and	r6, r5, r6, lsl r4
    6ae0:	e0083000 	and	r3, r8, r0
    6ae4:	e1866003 	orr	r6, r6, r3
    6ae8:	e1a01006 	mov	r1, r6
    6aec:	e12fff39 	blx	r9
    6af0:	e3500000 	cmp	r0, #0
    6af4:	1afffff4 	bne	6acc <__sync_sub_and_fetch_2+0x24>
    6af8:	e0065005 	and	r5, r6, r5
    6afc:	e1a04435 	lsr	r4, r5, r4
    6b00:	e1a00804 	lsl	r0, r4, #16
    6b04:	e1a00820 	lsr	r0, r0, #16
    6b08:	e8bd87f0 	pop	{r4, r5, r6, r7, r8, r9, sl, pc}
    6b0c:	0000ffff 	strdeq	pc, [r0], -pc	; <UNPREDICTABLE>
    6b10:	ffff0fc0 			; <UNDEFINED> instruction: 0xffff0fc0

00006b14 <__sync_or_and_fetch_2>:
    6b14:	e92d47f0 	push	{r4, r5, r6, r7, r8, r9, sl, lr}
    6b18:	e2004003 	and	r4, r0, #3
    6b1c:	e59f5054 	ldr	r5, [pc, #84]	; 6b78 <__sync_or_and_fetch_2+0x64>
    6b20:	e1a04184 	lsl	r4, r4, #3
    6b24:	e1a05415 	lsl	r5, r5, r4
    6b28:	e59f904c 	ldr	r9, [pc, #76]	; 6b7c <__sync_or_and_fetch_2+0x68>
    6b2c:	e1a0a001 	mov	sl, r1
    6b30:	e3c07003 	bic	r7, r0, #3
    6b34:	e1e08005 	mvn	r8, r5
    6b38:	e5970000 	ldr	r0, [r7]
    6b3c:	e1a02007 	mov	r2, r7
    6b40:	e0006005 	and	r6, r0, r5
    6b44:	e18a6436 	orr	r6, sl, r6, lsr r4
    6b48:	e0056416 	and	r6, r5, r6, lsl r4
    6b4c:	e0083000 	and	r3, r8, r0
    6b50:	e1866003 	orr	r6, r6, r3
    6b54:	e1a01006 	mov	r1, r6
    6b58:	e12fff39 	blx	r9
    6b5c:	e3500000 	cmp	r0, #0
    6b60:	1afffff4 	bne	6b38 <__sync_or_and_fetch_2+0x24>
    6b64:	e0065005 	and	r5, r6, r5
    6b68:	e1a04435 	lsr	r4, r5, r4
    6b6c:	e1a00804 	lsl	r0, r4, #16
    6b70:	e1a00820 	lsr	r0, r0, #16
    6b74:	e8bd87f0 	pop	{r4, r5, r6, r7, r8, r9, sl, pc}
    6b78:	0000ffff 	strdeq	pc, [r0], -pc	; <UNPREDICTABLE>
    6b7c:	ffff0fc0 			; <UNDEFINED> instruction: 0xffff0fc0

00006b80 <__sync_and_and_fetch_2>:
    6b80:	e92d47f0 	push	{r4, r5, r6, r7, r8, r9, sl, lr}
    6b84:	e2004003 	and	r4, r0, #3
    6b88:	e59f5054 	ldr	r5, [pc, #84]	; 6be4 <__sync_and_and_fetch_2+0x64>
    6b8c:	e1a04184 	lsl	r4, r4, #3
    6b90:	e1a05415 	lsl	r5, r5, r4
    6b94:	e59f904c 	ldr	r9, [pc, #76]	; 6be8 <__sync_and_and_fetch_2+0x68>
    6b98:	e1a0a001 	mov	sl, r1
    6b9c:	e3c07003 	bic	r7, r0, #3
    6ba0:	e1e08005 	mvn	r8, r5
    6ba4:	e5970000 	ldr	r0, [r7]
    6ba8:	e1a02007 	mov	r2, r7
    6bac:	e0006005 	and	r6, r0, r5
    6bb0:	e00a6436 	and	r6, sl, r6, lsr r4
    6bb4:	e0056416 	and	r6, r5, r6, lsl r4
    6bb8:	e0083000 	and	r3, r8, r0
    6bbc:	e1866003 	orr	r6, r6, r3
    6bc0:	e1a01006 	mov	r1, r6
    6bc4:	e12fff39 	blx	r9
    6bc8:	e3500000 	cmp	r0, #0
    6bcc:	1afffff4 	bne	6ba4 <__sync_and_and_fetch_2+0x24>
    6bd0:	e0065005 	and	r5, r6, r5
    6bd4:	e1a04435 	lsr	r4, r5, r4
    6bd8:	e1a00804 	lsl	r0, r4, #16
    6bdc:	e1a00820 	lsr	r0, r0, #16
    6be0:	e8bd87f0 	pop	{r4, r5, r6, r7, r8, r9, sl, pc}
    6be4:	0000ffff 	strdeq	pc, [r0], -pc	; <UNPREDICTABLE>
    6be8:	ffff0fc0 			; <UNDEFINED> instruction: 0xffff0fc0

00006bec <__sync_xor_and_fetch_2>:
    6bec:	e92d47f0 	push	{r4, r5, r6, r7, r8, r9, sl, lr}
    6bf0:	e2004003 	and	r4, r0, #3
    6bf4:	e59f5054 	ldr	r5, [pc, #84]	; 6c50 <__sync_xor_and_fetch_2+0x64>
    6bf8:	e1a04184 	lsl	r4, r4, #3
    6bfc:	e1a05415 	lsl	r5, r5, r4
    6c00:	e59f904c 	ldr	r9, [pc, #76]	; 6c54 <__sync_xor_and_fetch_2+0x68>
    6c04:	e1a0a001 	mov	sl, r1
    6c08:	e3c07003 	bic	r7, r0, #3
    6c0c:	e1e08005 	mvn	r8, r5
    6c10:	e5970000 	ldr	r0, [r7]
    6c14:	e1a02007 	mov	r2, r7
    6c18:	e0006005 	and	r6, r0, r5
    6c1c:	e02a6436 	eor	r6, sl, r6, lsr r4
    6c20:	e0056416 	and	r6, r5, r6, lsl r4
    6c24:	e0083000 	and	r3, r8, r0
    6c28:	e1866003 	orr	r6, r6, r3
    6c2c:	e1a01006 	mov	r1, r6
    6c30:	e12fff39 	blx	r9
    6c34:	e3500000 	cmp	r0, #0
    6c38:	1afffff4 	bne	6c10 <__sync_xor_and_fetch_2+0x24>
    6c3c:	e0065005 	and	r5, r6, r5
    6c40:	e1a04435 	lsr	r4, r5, r4
    6c44:	e1a00804 	lsl	r0, r4, #16
    6c48:	e1a00820 	lsr	r0, r0, #16
    6c4c:	e8bd87f0 	pop	{r4, r5, r6, r7, r8, r9, sl, pc}
    6c50:	0000ffff 	strdeq	pc, [r0], -pc	; <UNPREDICTABLE>
    6c54:	ffff0fc0 			; <UNDEFINED> instruction: 0xffff0fc0

00006c58 <__sync_nand_and_fetch_2>:
    6c58:	e92d47f0 	push	{r4, r5, r6, r7, r8, r9, sl, lr}
    6c5c:	e2004003 	and	r4, r0, #3
    6c60:	e59f5058 	ldr	r5, [pc, #88]	; 6cc0 <__sync_nand_and_fetch_2+0x68>
    6c64:	e1a04184 	lsl	r4, r4, #3
    6c68:	e1a05415 	lsl	r5, r5, r4
    6c6c:	e59f9050 	ldr	r9, [pc, #80]	; 6cc4 <__sync_nand_and_fetch_2+0x6c>
    6c70:	e1a0a001 	mov	sl, r1
    6c74:	e3c07003 	bic	r7, r0, #3
    6c78:	e1e08005 	mvn	r8, r5
    6c7c:	e5970000 	ldr	r0, [r7]
    6c80:	e1a02007 	mov	r2, r7
    6c84:	e0006005 	and	r6, r0, r5
    6c88:	e00a6436 	and	r6, sl, r6, lsr r4
    6c8c:	e1e06006 	mvn	r6, r6
    6c90:	e0056416 	and	r6, r5, r6, lsl r4
    6c94:	e0083000 	and	r3, r8, r0
    6c98:	e1866003 	orr	r6, r6, r3
    6c9c:	e1a01006 	mov	r1, r6
    6ca0:	e12fff39 	blx	r9
    6ca4:	e3500000 	cmp	r0, #0
    6ca8:	1afffff3 	bne	6c7c <__sync_nand_and_fetch_2+0x24>
    6cac:	e0065005 	and	r5, r6, r5
    6cb0:	e1a04435 	lsr	r4, r5, r4
    6cb4:	e1a00804 	lsl	r0, r4, #16
    6cb8:	e1a00820 	lsr	r0, r0, #16
    6cbc:	e8bd87f0 	pop	{r4, r5, r6, r7, r8, r9, sl, pc}
    6cc0:	0000ffff 	strdeq	pc, [r0], -pc	; <UNPREDICTABLE>
    6cc4:	ffff0fc0 			; <UNDEFINED> instruction: 0xffff0fc0

00006cc8 <__sync_add_and_fetch_1>:
    6cc8:	e92d47f0 	push	{r4, r5, r6, r7, r8, r9, sl, lr}
    6ccc:	e2004003 	and	r4, r0, #3
    6cd0:	e1a04184 	lsl	r4, r4, #3
    6cd4:	e3a050ff 	mov	r5, #255	; 0xff
    6cd8:	e1a05415 	lsl	r5, r5, r4
    6cdc:	e59f9044 	ldr	r9, [pc, #68]	; 6d28 <__sync_add_and_fetch_1+0x60>
    6ce0:	e1a0a001 	mov	sl, r1
    6ce4:	e3c07003 	bic	r7, r0, #3
    6ce8:	e1e08005 	mvn	r8, r5
    6cec:	e5970000 	ldr	r0, [r7]
    6cf0:	e1a02007 	mov	r2, r7
    6cf4:	e0006005 	and	r6, r0, r5
    6cf8:	e08a6436 	add	r6, sl, r6, lsr r4
    6cfc:	e0056416 	and	r6, r5, r6, lsl r4
    6d00:	e0083000 	and	r3, r8, r0
    6d04:	e1866003 	orr	r6, r6, r3
    6d08:	e1a01006 	mov	r1, r6
    6d0c:	e12fff39 	blx	r9
    6d10:	e3500000 	cmp	r0, #0
    6d14:	1afffff4 	bne	6cec <__sync_add_and_fetch_1+0x24>
    6d18:	e0065005 	and	r5, r6, r5
    6d1c:	e1a04435 	lsr	r4, r5, r4
    6d20:	e20400ff 	and	r0, r4, #255	; 0xff
    6d24:	e8bd87f0 	pop	{r4, r5, r6, r7, r8, r9, sl, pc}
    6d28:	ffff0fc0 			; <UNDEFINED> instruction: 0xffff0fc0

00006d2c <__sync_sub_and_fetch_1>:
    6d2c:	e92d47f0 	push	{r4, r5, r6, r7, r8, r9, sl, lr}
    6d30:	e2004003 	and	r4, r0, #3
    6d34:	e1a04184 	lsl	r4, r4, #3
    6d38:	e3a050ff 	mov	r5, #255	; 0xff
    6d3c:	e1a05415 	lsl	r5, r5, r4
    6d40:	e59f9044 	ldr	r9, [pc, #68]	; 6d8c <__sync_sub_and_fetch_1+0x60>
    6d44:	e1a0a001 	mov	sl, r1
    6d48:	e3c07003 	bic	r7, r0, #3
    6d4c:	e1e08005 	mvn	r8, r5
    6d50:	e5970000 	ldr	r0, [r7]
    6d54:	e1a02007 	mov	r2, r7
    6d58:	e0006005 	and	r6, r0, r5
    6d5c:	e06a6436 	rsb	r6, sl, r6, lsr r4
    6d60:	e0056416 	and	r6, r5, r6, lsl r4
    6d64:	e0083000 	and	r3, r8, r0
    6d68:	e1866003 	orr	r6, r6, r3
    6d6c:	e1a01006 	mov	r1, r6
    6d70:	e12fff39 	blx	r9
    6d74:	e3500000 	cmp	r0, #0
    6d78:	1afffff4 	bne	6d50 <__sync_sub_and_fetch_1+0x24>
    6d7c:	e0065005 	and	r5, r6, r5
    6d80:	e1a04435 	lsr	r4, r5, r4
    6d84:	e20400ff 	and	r0, r4, #255	; 0xff
    6d88:	e8bd87f0 	pop	{r4, r5, r6, r7, r8, r9, sl, pc}
    6d8c:	ffff0fc0 			; <UNDEFINED> instruction: 0xffff0fc0

00006d90 <__sync_or_and_fetch_1>:
    6d90:	e92d47f0 	push	{r4, r5, r6, r7, r8, r9, sl, lr}
    6d94:	e2004003 	and	r4, r0, #3
    6d98:	e1a04184 	lsl	r4, r4, #3
    6d9c:	e3a050ff 	mov	r5, #255	; 0xff
    6da0:	e1a05415 	lsl	r5, r5, r4
    6da4:	e59f9044 	ldr	r9, [pc, #68]	; 6df0 <__sync_or_and_fetch_1+0x60>
    6da8:	e1a0a001 	mov	sl, r1
    6dac:	e3c07003 	bic	r7, r0, #3
    6db0:	e1e08005 	mvn	r8, r5
    6db4:	e5970000 	ldr	r0, [r7]
    6db8:	e1a02007 	mov	r2, r7
    6dbc:	e0006005 	and	r6, r0, r5
    6dc0:	e18a6436 	orr	r6, sl, r6, lsr r4
    6dc4:	e0056416 	and	r6, r5, r6, lsl r4
    6dc8:	e0083000 	and	r3, r8, r0
    6dcc:	e1866003 	orr	r6, r6, r3
    6dd0:	e1a01006 	mov	r1, r6
    6dd4:	e12fff39 	blx	r9
    6dd8:	e3500000 	cmp	r0, #0
    6ddc:	1afffff4 	bne	6db4 <__sync_or_and_fetch_1+0x24>
    6de0:	e0065005 	and	r5, r6, r5
    6de4:	e1a04435 	lsr	r4, r5, r4
    6de8:	e20400ff 	and	r0, r4, #255	; 0xff
    6dec:	e8bd87f0 	pop	{r4, r5, r6, r7, r8, r9, sl, pc}
    6df0:	ffff0fc0 			; <UNDEFINED> instruction: 0xffff0fc0

00006df4 <__sync_and_and_fetch_1>:
    6df4:	e92d47f0 	push	{r4, r5, r6, r7, r8, r9, sl, lr}
    6df8:	e2004003 	and	r4, r0, #3
    6dfc:	e1a04184 	lsl	r4, r4, #3
    6e00:	e3a050ff 	mov	r5, #255	; 0xff
    6e04:	e1a05415 	lsl	r5, r5, r4
    6e08:	e59f9044 	ldr	r9, [pc, #68]	; 6e54 <__sync_and_and_fetch_1+0x60>
    6e0c:	e1a0a001 	mov	sl, r1
    6e10:	e3c07003 	bic	r7, r0, #3
    6e14:	e1e08005 	mvn	r8, r5
    6e18:	e5970000 	ldr	r0, [r7]
    6e1c:	e1a02007 	mov	r2, r7
    6e20:	e0006005 	and	r6, r0, r5
    6e24:	e00a6436 	and	r6, sl, r6, lsr r4
    6e28:	e0056416 	and	r6, r5, r6, lsl r4
    6e2c:	e0083000 	and	r3, r8, r0
    6e30:	e1866003 	orr	r6, r6, r3
    6e34:	e1a01006 	mov	r1, r6
    6e38:	e12fff39 	blx	r9
    6e3c:	e3500000 	cmp	r0, #0
    6e40:	1afffff4 	bne	6e18 <__sync_and_and_fetch_1+0x24>
    6e44:	e0065005 	and	r5, r6, r5
    6e48:	e1a04435 	lsr	r4, r5, r4
    6e4c:	e20400ff 	and	r0, r4, #255	; 0xff
    6e50:	e8bd87f0 	pop	{r4, r5, r6, r7, r8, r9, sl, pc}
    6e54:	ffff0fc0 			; <UNDEFINED> instruction: 0xffff0fc0

00006e58 <__sync_xor_and_fetch_1>:
    6e58:	e92d47f0 	push	{r4, r5, r6, r7, r8, r9, sl, lr}
    6e5c:	e2004003 	and	r4, r0, #3
    6e60:	e1a04184 	lsl	r4, r4, #3
    6e64:	e3a050ff 	mov	r5, #255	; 0xff
    6e68:	e1a05415 	lsl	r5, r5, r4
    6e6c:	e59f9044 	ldr	r9, [pc, #68]	; 6eb8 <__sync_xor_and_fetch_1+0x60>
    6e70:	e1a0a001 	mov	sl, r1
    6e74:	e3c07003 	bic	r7, r0, #3
    6e78:	e1e08005 	mvn	r8, r5
    6e7c:	e5970000 	ldr	r0, [r7]
    6e80:	e1a02007 	mov	r2, r7
    6e84:	e0006005 	and	r6, r0, r5
    6e88:	e02a6436 	eor	r6, sl, r6, lsr r4
    6e8c:	e0056416 	and	r6, r5, r6, lsl r4
    6e90:	e0083000 	and	r3, r8, r0
    6e94:	e1866003 	orr	r6, r6, r3
    6e98:	e1a01006 	mov	r1, r6
    6e9c:	e12fff39 	blx	r9
    6ea0:	e3500000 	cmp	r0, #0
    6ea4:	1afffff4 	bne	6e7c <__sync_xor_and_fetch_1+0x24>
    6ea8:	e0065005 	and	r5, r6, r5
    6eac:	e1a04435 	lsr	r4, r5, r4
    6eb0:	e20400ff 	and	r0, r4, #255	; 0xff
    6eb4:	e8bd87f0 	pop	{r4, r5, r6, r7, r8, r9, sl, pc}
    6eb8:	ffff0fc0 			; <UNDEFINED> instruction: 0xffff0fc0

00006ebc <__sync_nand_and_fetch_1>:
    6ebc:	e92d47f0 	push	{r4, r5, r6, r7, r8, r9, sl, lr}
    6ec0:	e2004003 	and	r4, r0, #3
    6ec4:	e1a04184 	lsl	r4, r4, #3
    6ec8:	e3a050ff 	mov	r5, #255	; 0xff
    6ecc:	e1a05415 	lsl	r5, r5, r4
    6ed0:	e59f9048 	ldr	r9, [pc, #72]	; 6f20 <__sync_nand_and_fetch_1+0x64>
    6ed4:	e1a0a001 	mov	sl, r1
    6ed8:	e3c07003 	bic	r7, r0, #3
    6edc:	e1e08005 	mvn	r8, r5
    6ee0:	e5970000 	ldr	r0, [r7]
    6ee4:	e1a02007 	mov	r2, r7
    6ee8:	e0006005 	and	r6, r0, r5
    6eec:	e00a6436 	and	r6, sl, r6, lsr r4
    6ef0:	e1e06006 	mvn	r6, r6
    6ef4:	e0056416 	and	r6, r5, r6, lsl r4
    6ef8:	e0083000 	and	r3, r8, r0
    6efc:	e1866003 	orr	r6, r6, r3
    6f00:	e1a01006 	mov	r1, r6
    6f04:	e12fff39 	blx	r9
    6f08:	e3500000 	cmp	r0, #0
    6f0c:	1afffff3 	bne	6ee0 <__sync_nand_and_fetch_1+0x24>
    6f10:	e0065005 	and	r5, r6, r5
    6f14:	e1a04435 	lsr	r4, r5, r4
    6f18:	e20400ff 	and	r0, r4, #255	; 0xff
    6f1c:	e8bd87f0 	pop	{r4, r5, r6, r7, r8, r9, sl, pc}
    6f20:	ffff0fc0 			; <UNDEFINED> instruction: 0xffff0fc0

00006f24 <__sync_val_compare_and_swap_4>:
    6f24:	e92d40f8 	push	{r3, r4, r5, r6, r7, lr}
    6f28:	e59f7038 	ldr	r7, [pc, #56]	; 6f68 <__sync_val_compare_and_swap_4+0x44>
    6f2c:	e1a05000 	mov	r5, r0
    6f30:	e1a04001 	mov	r4, r1
    6f34:	e1a06002 	mov	r6, r2
    6f38:	e5953000 	ldr	r3, [r5]
    6f3c:	e1a00004 	mov	r0, r4
    6f40:	e1530004 	cmp	r3, r4
    6f44:	e1a01006 	mov	r1, r6
    6f48:	e1a02005 	mov	r2, r5
    6f4c:	1a000003 	bne	6f60 <__sync_val_compare_and_swap_4+0x3c>
    6f50:	e12fff37 	blx	r7
    6f54:	e3500000 	cmp	r0, #0
    6f58:	1afffff6 	bne	6f38 <__sync_val_compare_and_swap_4+0x14>
    6f5c:	e1a03004 	mov	r3, r4
    6f60:	e1a00003 	mov	r0, r3
    6f64:	e8bd80f8 	pop	{r3, r4, r5, r6, r7, pc}
    6f68:	ffff0fc0 			; <UNDEFINED> instruction: 0xffff0fc0

00006f6c <__sync_val_compare_and_swap_2>:
    6f6c:	e92d47f0 	push	{r4, r5, r6, r7, r8, r9, sl, lr}
    6f70:	e2005003 	and	r5, r0, #3
    6f74:	e59f4058 	ldr	r4, [pc, #88]	; 6fd4 <__sync_val_compare_and_swap_2+0x68>
    6f78:	e1a05185 	lsl	r5, r5, #3
    6f7c:	e1a04514 	lsl	r4, r4, r5
    6f80:	e0048512 	and	r8, r4, r2, lsl r5
    6f84:	e59fa04c 	ldr	sl, [pc, #76]	; 6fd8 <__sync_val_compare_and_swap_2+0x6c>
    6f88:	e1a06001 	mov	r6, r1
    6f8c:	e3c07003 	bic	r7, r0, #3
    6f90:	e1e09004 	mvn	r9, r4
    6f94:	e5970000 	ldr	r0, [r7]
    6f98:	e1a02007 	mov	r2, r7
    6f9c:	e000c004 	and	ip, r0, r4
    6fa0:	e1a0353c 	lsr	r3, ip, r5
    6fa4:	e0091000 	and	r1, r9, r0
    6fa8:	e1530006 	cmp	r3, r6
    6fac:	e1811008 	orr	r1, r1, r8
    6fb0:	1a000004 	bne	6fc8 <__sync_val_compare_and_swap_2+0x5c>
    6fb4:	e12fff3a 	blx	sl
    6fb8:	e3500000 	cmp	r0, #0
    6fbc:	1afffff4 	bne	6f94 <__sync_val_compare_and_swap_2+0x28>
    6fc0:	e1a00006 	mov	r0, r6
    6fc4:	e8bd87f0 	pop	{r4, r5, r6, r7, r8, r9, sl, pc}
    6fc8:	e1a03803 	lsl	r3, r3, #16
    6fcc:	e1a06823 	lsr	r6, r3, #16
    6fd0:	eafffffa 	b	6fc0 <__sync_val_compare_and_swap_2+0x54>
    6fd4:	0000ffff 	strdeq	pc, [r0], -pc	; <UNPREDICTABLE>
    6fd8:	ffff0fc0 			; <UNDEFINED> instruction: 0xffff0fc0

00006fdc <__sync_val_compare_and_swap_1>:
    6fdc:	e92d47f0 	push	{r4, r5, r6, r7, r8, r9, sl, lr}
    6fe0:	e2005003 	and	r5, r0, #3
    6fe4:	e1a05185 	lsl	r5, r5, #3
    6fe8:	e3a040ff 	mov	r4, #255	; 0xff
    6fec:	e1a04514 	lsl	r4, r4, r5
    6ff0:	e0048512 	and	r8, r4, r2, lsl r5
    6ff4:	e59fa044 	ldr	sl, [pc, #68]	; 7040 <__sync_val_compare_and_swap_1+0x64>
    6ff8:	e1a06001 	mov	r6, r1
    6ffc:	e3c07003 	bic	r7, r0, #3
    7000:	e1e09004 	mvn	r9, r4
    7004:	e5970000 	ldr	r0, [r7]
    7008:	e1a02007 	mov	r2, r7
    700c:	e000c004 	and	ip, r0, r4
    7010:	e1a0353c 	lsr	r3, ip, r5
    7014:	e0091000 	and	r1, r9, r0
    7018:	e1530006 	cmp	r3, r6
    701c:	e1811008 	orr	r1, r1, r8
    7020:	1a000004 	bne	7038 <__sync_val_compare_and_swap_1+0x5c>
    7024:	e12fff3a 	blx	sl
    7028:	e3500000 	cmp	r0, #0
    702c:	1afffff4 	bne	7004 <__sync_val_compare_and_swap_1+0x28>
    7030:	e1a00006 	mov	r0, r6
    7034:	e8bd87f0 	pop	{r4, r5, r6, r7, r8, r9, sl, pc}
    7038:	e20360ff 	and	r6, r3, #255	; 0xff
    703c:	eafffffb 	b	7030 <__sync_val_compare_and_swap_1+0x54>
    7040:	ffff0fc0 			; <UNDEFINED> instruction: 0xffff0fc0

00007044 <__sync_bool_compare_and_swap_4>:
    7044:	e92d4008 	push	{r3, lr}
    7048:	e1a03000 	mov	r3, r0
    704c:	e1a00001 	mov	r0, r1
    7050:	e1a01002 	mov	r1, r2
    7054:	e1a02003 	mov	r2, r3
    7058:	e59f300c 	ldr	r3, [pc, #12]	; 706c <__sync_bool_compare_and_swap_4+0x28>
    705c:	e12fff33 	blx	r3
    7060:	e2700001 	rsbs	r0, r0, #1
    7064:	33a00000 	movcc	r0, #0
    7068:	e8bd8008 	pop	{r3, pc}
    706c:	ffff0fc0 			; <UNDEFINED> instruction: 0xffff0fc0

00007070 <__sync_bool_compare_and_swap_2>:
    7070:	e92d4010 	push	{r4, lr}
    7074:	e1a02802 	lsl	r2, r2, #16
    7078:	e1a04001 	mov	r4, r1
    707c:	e1a01801 	lsl	r1, r1, #16
    7080:	e1a01841 	asr	r1, r1, #16
    7084:	e1a02842 	asr	r2, r2, #16
    7088:	ebffffb7 	bl	6f6c <__sync_val_compare_and_swap_2>
    708c:	e1a00800 	lsl	r0, r0, #16
    7090:	e1540820 	cmp	r4, r0, lsr #16
    7094:	13a00000 	movne	r0, #0
    7098:	03a00001 	moveq	r0, #1
    709c:	e8bd8010 	pop	{r4, pc}

000070a0 <__sync_bool_compare_and_swap_1>:
    70a0:	e92d4010 	push	{r4, lr}
    70a4:	e1a02c02 	lsl	r2, r2, #24
    70a8:	e1a04001 	mov	r4, r1
    70ac:	e1a01c01 	lsl	r1, r1, #24
    70b0:	e1a01c41 	asr	r1, r1, #24
    70b4:	e1a02c42 	asr	r2, r2, #24
    70b8:	ebffffc7 	bl	6fdc <__sync_val_compare_and_swap_1>
    70bc:	e20000ff 	and	r0, r0, #255	; 0xff
    70c0:	e0543000 	subs	r3, r4, r0
    70c4:	e2730000 	rsbs	r0, r3, #0
    70c8:	e0b00003 	adcs	r0, r0, r3
    70cc:	e8bd8010 	pop	{r4, pc}

000070d0 <__sync_synchronize>:
    70d0:	e92d4008 	push	{r3, lr}
    70d4:	e59f3004 	ldr	r3, [pc, #4]	; 70e0 <__sync_synchronize+0x10>
    70d8:	e12fff33 	blx	r3
    70dc:	e8bd8008 	pop	{r3, pc}
    70e0:	ffff0fa0 			; <UNDEFINED> instruction: 0xffff0fa0

000070e4 <__sync_lock_test_and_set_4>:
    70e4:	e92d40f8 	push	{r3, r4, r5, r6, r7, lr}
    70e8:	e59f7028 	ldr	r7, [pc, #40]	; 7118 <__sync_lock_test_and_set_4+0x34>
    70ec:	e1a05000 	mov	r5, r0
    70f0:	e1a06001 	mov	r6, r1
    70f4:	e5954000 	ldr	r4, [r5]
    70f8:	e1a01006 	mov	r1, r6
    70fc:	e1a00004 	mov	r0, r4
    7100:	e1a02005 	mov	r2, r5
    7104:	e12fff37 	blx	r7
    7108:	e3500000 	cmp	r0, #0
    710c:	1afffff8 	bne	70f4 <__sync_lock_test_and_set_4+0x10>
    7110:	e1a00004 	mov	r0, r4
    7114:	e8bd80f8 	pop	{r3, r4, r5, r6, r7, pc}
    7118:	ffff0fc0 			; <UNDEFINED> instruction: 0xffff0fc0

0000711c <__sync_lock_test_and_set_2>:
    711c:	e92d47f0 	push	{r4, r5, r6, r7, r8, r9, sl, lr}
    7120:	e200a003 	and	sl, r0, #3
    7124:	e59f9048 	ldr	r9, [pc, #72]	; 7174 <__sync_lock_test_and_set_2+0x58>
    7128:	e1a0a18a 	lsl	sl, sl, #3
    712c:	e1a09a19 	lsl	r9, r9, sl
    7130:	e0098a11 	and	r8, r9, r1, lsl sl
    7134:	e59f703c 	ldr	r7, [pc, #60]	; 7178 <__sync_lock_test_and_set_2+0x5c>
    7138:	e3c05003 	bic	r5, r0, #3
    713c:	e1e06009 	mvn	r6, r9
    7140:	e5954000 	ldr	r4, [r5]
    7144:	e1a02005 	mov	r2, r5
    7148:	e0061004 	and	r1, r6, r4
    714c:	e1a00004 	mov	r0, r4
    7150:	e1811008 	orr	r1, r1, r8
    7154:	e12fff37 	blx	r7
    7158:	e3500000 	cmp	r0, #0
    715c:	1afffff7 	bne	7140 <__sync_lock_test_and_set_2+0x24>
    7160:	e0044009 	and	r4, r4, r9
    7164:	e1a0aa34 	lsr	sl, r4, sl
    7168:	e1a0080a 	lsl	r0, sl, #16
    716c:	e1a00820 	lsr	r0, r0, #16
    7170:	e8bd87f0 	pop	{r4, r5, r6, r7, r8, r9, sl, pc}
    7174:	0000ffff 	strdeq	pc, [r0], -pc	; <UNPREDICTABLE>
    7178:	ffff0fc0 			; <UNDEFINED> instruction: 0xffff0fc0

0000717c <__sync_lock_test_and_set_1>:
    717c:	e92d47f0 	push	{r4, r5, r6, r7, r8, r9, sl, lr}
    7180:	e200a003 	and	sl, r0, #3
    7184:	e1a0a18a 	lsl	sl, sl, #3
    7188:	e3a090ff 	mov	r9, #255	; 0xff
    718c:	e1a09a19 	lsl	r9, r9, sl
    7190:	e0098a11 	and	r8, r9, r1, lsl sl
    7194:	e59f7034 	ldr	r7, [pc, #52]	; 71d0 <__sync_lock_test_and_set_1+0x54>
    7198:	e3c05003 	bic	r5, r0, #3
    719c:	e1e06009 	mvn	r6, r9
    71a0:	e5954000 	ldr	r4, [r5]
    71a4:	e1a02005 	mov	r2, r5
    71a8:	e0061004 	and	r1, r6, r4
    71ac:	e1a00004 	mov	r0, r4
    71b0:	e1811008 	orr	r1, r1, r8
    71b4:	e12fff37 	blx	r7
    71b8:	e3500000 	cmp	r0, #0
    71bc:	1afffff7 	bne	71a0 <__sync_lock_test_and_set_1+0x24>
    71c0:	e0044009 	and	r4, r4, r9
    71c4:	e1a0aa34 	lsr	sl, r4, sl
    71c8:	e20a00ff 	and	r0, sl, #255	; 0xff
    71cc:	e8bd87f0 	pop	{r4, r5, r6, r7, r8, r9, sl, pc}
    71d0:	ffff0fc0 			; <UNDEFINED> instruction: 0xffff0fc0

000071d4 <__sync_lock_release_8>:
    71d4:	e92d4010 	push	{r4, lr}
    71d8:	e59f3014 	ldr	r3, [pc, #20]	; 71f4 <__sync_lock_release_8+0x20>
    71dc:	e1a04000 	mov	r4, r0
    71e0:	e12fff33 	blx	r3
    71e4:	e3a02000 	mov	r2, #0
    71e8:	e3a03000 	mov	r3, #0
    71ec:	e884000c 	stm	r4, {r2, r3}
    71f0:	e8bd8010 	pop	{r4, pc}
    71f4:	ffff0fa0 			; <UNDEFINED> instruction: 0xffff0fa0

000071f8 <__sync_lock_release_4>:
    71f8:	e92d4010 	push	{r4, lr}
    71fc:	e59f3010 	ldr	r3, [pc, #16]	; 7214 <__sync_lock_release_4+0x1c>
    7200:	e1a04000 	mov	r4, r0
    7204:	e12fff33 	blx	r3
    7208:	e3a03000 	mov	r3, #0
    720c:	e5843000 	str	r3, [r4]
    7210:	e8bd8010 	pop	{r4, pc}
    7214:	ffff0fa0 			; <UNDEFINED> instruction: 0xffff0fa0

00007218 <__sync_lock_release_2>:
    7218:	e92d4010 	push	{r4, lr}
    721c:	e59f3010 	ldr	r3, [pc, #16]	; 7234 <__sync_lock_release_2+0x1c>
    7220:	e1a04000 	mov	r4, r0
    7224:	e12fff33 	blx	r3
    7228:	e3a03000 	mov	r3, #0
    722c:	e1c430b0 	strh	r3, [r4]
    7230:	e8bd8010 	pop	{r4, pc}
    7234:	ffff0fa0 			; <UNDEFINED> instruction: 0xffff0fa0

00007238 <__sync_lock_release_1>:
    7238:	e92d4010 	push	{r4, lr}
    723c:	e59f3010 	ldr	r3, [pc, #16]	; 7254 <__sync_lock_release_1+0x1c>
    7240:	e1a04000 	mov	r4, r0
    7244:	e12fff33 	blx	r3
    7248:	e3a03000 	mov	r3, #0
    724c:	e5c43000 	strb	r3, [r4]
    7250:	e8bd8010 	pop	{r4, pc}
    7254:	ffff0fa0 			; <UNDEFINED> instruction: 0xffff0fa0

00007258 <__divdi3>:
    7258:	e92d4ff0 	push	{r4, r5, r6, r7, r8, r9, sl, fp, lr}
    725c:	e24dd00c 	sub	sp, sp, #12
    7260:	e3510000 	cmp	r1, #0
    7264:	e1a0c003 	mov	ip, r3
    7268:	a3a07000 	movge	r7, #0
    726c:	ba000099 	blt	74d8 <__divdi3+0x280>
    7270:	e35c0000 	cmp	ip, #0
    7274:	ba000093 	blt	74c8 <__divdi3+0x270>
    7278:	e253c000 	subs	ip, r3, #0
    727c:	e1a0b000 	mov	fp, r0
    7280:	e1a0a001 	mov	sl, r1
    7284:	e1a09002 	mov	r9, r2
    7288:	e1a04002 	mov	r4, r2
    728c:	e1a05000 	mov	r5, r0
    7290:	e1a06001 	mov	r6, r1
    7294:	1a000041 	bne	73a0 <__divdi3+0x148>
    7298:	e1520001 	cmp	r2, r1
    729c:	9a00004e 	bls	73dc <__divdi3+0x184>
    72a0:	e16f3f12 	clz	r3, r2
    72a4:	e3530000 	cmp	r3, #0
    72a8:	12632020 	rsbne	r2, r3, #32
    72ac:	11a02230 	lsrne	r2, r0, r2
    72b0:	11a04319 	lslne	r4, r9, r3
    72b4:	11826311 	orrne	r6, r2, r1, lsl r3
    72b8:	e1a08824 	lsr	r8, r4, #16
    72bc:	11a05310 	lslne	r5, r0, r3
    72c0:	e1a01008 	mov	r1, r8
    72c4:	e1a00006 	mov	r0, r6
    72c8:	ebfffbd5 	bl	6224 <__aeabi_uidivmod>
    72cc:	e1a00006 	mov	r0, r6
    72d0:	e1a09001 	mov	r9, r1
    72d4:	e1a01008 	mov	r1, r8
    72d8:	ebfffb56 	bl	6038 <__aeabi_uidiv>
    72dc:	e1a0a804 	lsl	sl, r4, #16
    72e0:	e1a0a82a 	lsr	sl, sl, #16
    72e4:	e1a06000 	mov	r6, r0
    72e8:	e000069a 	mul	r0, sl, r6
    72ec:	e1a03825 	lsr	r3, r5, #16
    72f0:	e1833809 	orr	r3, r3, r9, lsl #16
    72f4:	e1500003 	cmp	r0, r3
    72f8:	9a000007 	bls	731c <__divdi3+0xc4>
    72fc:	e0933004 	adds	r3, r3, r4
    7300:	e2462001 	sub	r2, r6, #1
    7304:	2a000003 	bcs	7318 <__divdi3+0xc0>
    7308:	e1500003 	cmp	r0, r3
    730c:	82466002 	subhi	r6, r6, #2
    7310:	80833004 	addhi	r3, r3, r4
    7314:	8a000000 	bhi	731c <__divdi3+0xc4>
    7318:	e1a06002 	mov	r6, r2
    731c:	e0609003 	rsb	r9, r0, r3
    7320:	e1a00009 	mov	r0, r9
    7324:	e1a01008 	mov	r1, r8
    7328:	ebfffbbd 	bl	6224 <__aeabi_uidivmod>
    732c:	e1a00009 	mov	r0, r9
    7330:	e1a0b001 	mov	fp, r1
    7334:	e1a01008 	mov	r1, r8
    7338:	ebfffb3e 	bl	6038 <__aeabi_uidiv>
    733c:	e00a0a90 	mul	sl, r0, sl
    7340:	e1a01805 	lsl	r1, r5, #16
    7344:	e1a01821 	lsr	r1, r1, #16
    7348:	e181180b 	orr	r1, r1, fp, lsl #16
    734c:	e15a0001 	cmp	sl, r1
    7350:	9a000006 	bls	7370 <__divdi3+0x118>
    7354:	e0914004 	adds	r4, r1, r4
    7358:	e2403001 	sub	r3, r0, #1
    735c:	2a000002 	bcs	736c <__divdi3+0x114>
    7360:	e15a0004 	cmp	sl, r4
    7364:	82400002 	subhi	r0, r0, #2
    7368:	8a000000 	bhi	7370 <__divdi3+0x118>
    736c:	e1a00003 	mov	r0, r3
    7370:	e1800806 	orr	r0, r0, r6, lsl #16
    7374:	e3a08000 	mov	r8, #0
    7378:	e3570000 	cmp	r7, #0
    737c:	e1a02000 	mov	r2, r0
    7380:	e1a03008 	mov	r3, r8
    7384:	0a000001 	beq	7390 <__divdi3+0x138>
    7388:	e2722000 	rsbs	r2, r2, #0
    738c:	e2e33000 	rsc	r3, r3, #0
    7390:	e1a00002 	mov	r0, r2
    7394:	e1a01003 	mov	r1, r3
    7398:	e28dd00c 	add	sp, sp, #12
    739c:	e8bd8ff0 	pop	{r4, r5, r6, r7, r8, r9, sl, fp, pc}
    73a0:	e15c0001 	cmp	ip, r1
    73a4:	83a08000 	movhi	r8, #0
    73a8:	81a00008 	movhi	r0, r8
    73ac:	8afffff1 	bhi	7378 <__divdi3+0x120>
    73b0:	e16f4f1c 	clz	r4, ip
    73b4:	e3540000 	cmp	r4, #0
    73b8:	1a000082 	bne	75c8 <__divdi3+0x370>
    73bc:	e15c0001 	cmp	ip, r1
    73c0:	2152000b 	cmpcs	r2, fp
    73c4:	83a08000 	movhi	r8, #0
    73c8:	93a08001 	movls	r8, #1
    73cc:	93a00001 	movls	r0, #1
    73d0:	91a08004 	movls	r8, r4
    73d4:	81a00008 	movhi	r0, r8
    73d8:	eaffffe6 	b	7378 <__divdi3+0x120>
    73dc:	e3520000 	cmp	r2, #0
    73e0:	1a000003 	bne	73f4 <__divdi3+0x19c>
    73e4:	e3a00001 	mov	r0, #1
    73e8:	e1a01002 	mov	r1, r2
    73ec:	ebfffb11 	bl	6038 <__aeabi_uidiv>
    73f0:	e1a04000 	mov	r4, r0
    73f4:	e16f3f14 	clz	r3, r4
    73f8:	e3530000 	cmp	r3, #0
    73fc:	1a000039 	bne	74e8 <__divdi3+0x290>
    7400:	e1a09804 	lsl	r9, r4, #16
    7404:	e0646006 	rsb	r6, r4, r6
    7408:	e1a0a824 	lsr	sl, r4, #16
    740c:	e1a09829 	lsr	r9, r9, #16
    7410:	e3a08001 	mov	r8, #1
    7414:	e1a00006 	mov	r0, r6
    7418:	e1a0100a 	mov	r1, sl
    741c:	ebfffb80 	bl	6224 <__aeabi_uidivmod>
    7420:	e1a00006 	mov	r0, r6
    7424:	e1a0b001 	mov	fp, r1
    7428:	e1a0100a 	mov	r1, sl
    742c:	ebfffb01 	bl	6038 <__aeabi_uidiv>
    7430:	e1a06000 	mov	r6, r0
    7434:	e0000699 	mul	r0, r9, r6
    7438:	e1a01825 	lsr	r1, r5, #16
    743c:	e181180b 	orr	r1, r1, fp, lsl #16
    7440:	e1500001 	cmp	r0, r1
    7444:	9a000006 	bls	7464 <__divdi3+0x20c>
    7448:	e0911004 	adds	r1, r1, r4
    744c:	e2463001 	sub	r3, r6, #1
    7450:	2a0000b2 	bcs	7720 <__divdi3+0x4c8>
    7454:	e1500001 	cmp	r0, r1
    7458:	82466002 	subhi	r6, r6, #2
    745c:	80811004 	addhi	r1, r1, r4
    7460:	9a0000ae 	bls	7720 <__divdi3+0x4c8>
    7464:	e060b001 	rsb	fp, r0, r1
    7468:	e1a0000b 	mov	r0, fp
    746c:	e1a0100a 	mov	r1, sl
    7470:	ebfffb6b 	bl	6224 <__aeabi_uidivmod>
    7474:	e1a0000b 	mov	r0, fp
    7478:	e1a03001 	mov	r3, r1
    747c:	e1a0100a 	mov	r1, sl
    7480:	e58d3000 	str	r3, [sp]
    7484:	ebfffaeb 	bl	6038 <__aeabi_uidiv>
    7488:	e0090990 	mul	r9, r0, r9
    748c:	e1a01805 	lsl	r1, r5, #16
    7490:	e59d3000 	ldr	r3, [sp]
    7494:	e1a01821 	lsr	r1, r1, #16
    7498:	e1811803 	orr	r1, r1, r3, lsl #16
    749c:	e1590001 	cmp	r9, r1
    74a0:	9a000006 	bls	74c0 <__divdi3+0x268>
    74a4:	e0914004 	adds	r4, r1, r4
    74a8:	e2403001 	sub	r3, r0, #1
    74ac:	2a000002 	bcs	74bc <__divdi3+0x264>
    74b0:	e1590004 	cmp	r9, r4
    74b4:	82400002 	subhi	r0, r0, #2
    74b8:	8a000000 	bhi	74c0 <__divdi3+0x268>
    74bc:	e1a00003 	mov	r0, r3
    74c0:	e1800806 	orr	r0, r0, r6, lsl #16
    74c4:	eaffffab 	b	7378 <__divdi3+0x120>
    74c8:	e1e07007 	mvn	r7, r7
    74cc:	e2722000 	rsbs	r2, r2, #0
    74d0:	e2e33000 	rsc	r3, r3, #0
    74d4:	eaffff67 	b	7278 <__divdi3+0x20>
    74d8:	e2700000 	rsbs	r0, r0, #0
    74dc:	e2e11000 	rsc	r1, r1, #0
    74e0:	e3e07000 	mvn	r7, #0
    74e4:	eaffff61 	b	7270 <__divdi3+0x18>
    74e8:	e2638020 	rsb	r8, r3, #32
    74ec:	e1a04314 	lsl	r4, r4, r3
    74f0:	e1a0b835 	lsr	fp, r5, r8
    74f4:	e1a08836 	lsr	r8, r6, r8
    74f8:	e1a0a824 	lsr	sl, r4, #16
    74fc:	e1a00008 	mov	r0, r8
    7500:	e1a0100a 	mov	r1, sl
    7504:	e18bb316 	orr	fp, fp, r6, lsl r3
    7508:	e1a05315 	lsl	r5, r5, r3
    750c:	ebfffb44 	bl	6224 <__aeabi_uidivmod>
    7510:	e1a00008 	mov	r0, r8
    7514:	e1a06001 	mov	r6, r1
    7518:	e1a0100a 	mov	r1, sl
    751c:	ebfffac5 	bl	6038 <__aeabi_uidiv>
    7520:	e1a09804 	lsl	r9, r4, #16
    7524:	e1a09829 	lsr	r9, r9, #16
    7528:	e1a08000 	mov	r8, r0
    752c:	e0000899 	mul	r0, r9, r8
    7530:	e1a0182b 	lsr	r1, fp, #16
    7534:	e1811806 	orr	r1, r1, r6, lsl #16
    7538:	e1500001 	cmp	r0, r1
    753c:	9a000006 	bls	755c <__divdi3+0x304>
    7540:	e0911004 	adds	r1, r1, r4
    7544:	e2483001 	sub	r3, r8, #1
    7548:	2a00007a 	bcs	7738 <__divdi3+0x4e0>
    754c:	e1500001 	cmp	r0, r1
    7550:	82488002 	subhi	r8, r8, #2
    7554:	80811004 	addhi	r1, r1, r4
    7558:	9a000076 	bls	7738 <__divdi3+0x4e0>
    755c:	e0606001 	rsb	r6, r0, r1
    7560:	e1a00006 	mov	r0, r6
    7564:	e1a0100a 	mov	r1, sl
    7568:	ebfffb2d 	bl	6224 <__aeabi_uidivmod>
    756c:	e1a00006 	mov	r0, r6
    7570:	e1a03001 	mov	r3, r1
    7574:	e1a0100a 	mov	r1, sl
    7578:	e58d3000 	str	r3, [sp]
    757c:	ebfffaad 	bl	6038 <__aeabi_uidiv>
    7580:	e0060099 	mul	r6, r9, r0
    7584:	e1a0180b 	lsl	r1, fp, #16
    7588:	e59d3000 	ldr	r3, [sp]
    758c:	e1a01821 	lsr	r1, r1, #16
    7590:	e1811803 	orr	r1, r1, r3, lsl #16
    7594:	e1560001 	cmp	r6, r1
    7598:	9a000007 	bls	75bc <__divdi3+0x364>
    759c:	e0911004 	adds	r1, r1, r4
    75a0:	e2403001 	sub	r3, r0, #1
    75a4:	2a000003 	bcs	75b8 <__divdi3+0x360>
    75a8:	e1560001 	cmp	r6, r1
    75ac:	82400002 	subhi	r0, r0, #2
    75b0:	80811004 	addhi	r1, r1, r4
    75b4:	8a000000 	bhi	75bc <__divdi3+0x364>
    75b8:	e1a00003 	mov	r0, r3
    75bc:	e0666001 	rsb	r6, r6, r1
    75c0:	e1808808 	orr	r8, r0, r8, lsl #16
    75c4:	eaffff92 	b	7414 <__divdi3+0x1bc>
    75c8:	e2640020 	rsb	r0, r4, #32
    75cc:	e1a08032 	lsr	r8, r2, r0
    75d0:	e188841c 	orr	r8, r8, ip, lsl r4
    75d4:	e1a0203b 	lsr	r2, fp, r0
    75d8:	e1a03031 	lsr	r3, r1, r0
    75dc:	e1a06828 	lsr	r6, r8, #16
    75e0:	e182a411 	orr	sl, r2, r1, lsl r4
    75e4:	e1a00003 	mov	r0, r3
    75e8:	e1a01006 	mov	r1, r6
    75ec:	e58d3000 	str	r3, [sp]
    75f0:	ebfffb0b 	bl	6224 <__aeabi_uidivmod>
    75f4:	e59d3000 	ldr	r3, [sp]
    75f8:	e1a02001 	mov	r2, r1
    75fc:	e1a00003 	mov	r0, r3
    7600:	e1a01006 	mov	r1, r6
    7604:	e58d2004 	str	r2, [sp, #4]
    7608:	ebfffa8a 	bl	6038 <__aeabi_uidiv>
    760c:	e1a0b808 	lsl	fp, r8, #16
    7610:	e1a0b82b 	lsr	fp, fp, #16
    7614:	e1a03000 	mov	r3, r0
    7618:	e000039b 	mul	r0, fp, r3
    761c:	e59d2004 	ldr	r2, [sp, #4]
    7620:	e1a0182a 	lsr	r1, sl, #16
    7624:	e1811802 	orr	r1, r1, r2, lsl #16
    7628:	e1500001 	cmp	r0, r1
    762c:	e1a09419 	lsl	r9, r9, r4
    7630:	9a000006 	bls	7650 <__divdi3+0x3f8>
    7634:	e0911008 	adds	r1, r1, r8
    7638:	e2432001 	sub	r2, r3, #1
    763c:	2a00003b 	bcs	7730 <__divdi3+0x4d8>
    7640:	e1500001 	cmp	r0, r1
    7644:	82433002 	subhi	r3, r3, #2
    7648:	80811008 	addhi	r1, r1, r8
    764c:	9a000037 	bls	7730 <__divdi3+0x4d8>
    7650:	e060c001 	rsb	ip, r0, r1
    7654:	e1a0000c 	mov	r0, ip
    7658:	e1a01006 	mov	r1, r6
    765c:	e88d1008 	stm	sp, {r3, ip}
    7660:	ebfffaef 	bl	6224 <__aeabi_uidivmod>
    7664:	e59dc004 	ldr	ip, [sp, #4]
    7668:	e1a02001 	mov	r2, r1
    766c:	e1a0000c 	mov	r0, ip
    7670:	e1a01006 	mov	r1, r6
    7674:	e58d2004 	str	r2, [sp, #4]
    7678:	ebfffa6e 	bl	6038 <__aeabi_uidiv>
    767c:	e00b0b90 	mul	fp, r0, fp
    7680:	e1a0a80a 	lsl	sl, sl, #16
    7684:	e59d2004 	ldr	r2, [sp, #4]
